
test_void:     file format elf64-littleriscv


Disassembly of section .text:

00000000000100b0 <_start>:
   100b0:	0000d197          	auipc	gp,0xd
   100b4:	1b818193          	addi	gp,gp,440 # 1d268 <__global_pointer$>
   100b8:	0000d517          	auipc	a0,0xd
   100bc:	9f850513          	addi	a0,a0,-1544 # 1cab0 <_edata>
   100c0:	0000d617          	auipc	a2,0xd
   100c4:	a9060613          	addi	a2,a2,-1392 # 1cb50 <_end>
   100c8:	8e09                	sub	a2,a2,a0
   100ca:	4581                	li	a1,0
   100cc:	1c6000ef          	jal	ra,10292 <memset>
   100d0:	00000517          	auipc	a0,0x0
   100d4:	11850513          	addi	a0,a0,280 # 101e8 <__libc_fini_array>
   100d8:	0e6000ef          	jal	ra,101be <atexit>
   100dc:	154000ef          	jal	ra,10230 <__libc_init_array>
   100e0:	4502                	lw	a0,0(sp)
   100e2:	002c                	addi	a1,sp,8
   100e4:	4601                	li	a2,0
   100e6:	0bc000ef          	jal	ra,101a2 <main>
   100ea:	0e00006f          	j	101ca <exit>

00000000000100ee <_fini>:
   100ee:	8082                	ret

00000000000100f0 <deregister_tm_clones>:
   100f0:	6575                	lui	a0,0x1d
   100f2:	67f5                	lui	a5,0x1d
   100f4:	a6850713          	addi	a4,a0,-1432 # 1ca68 <__TMC_END__>
   100f8:	a6878793          	addi	a5,a5,-1432 # 1ca68 <__TMC_END__>
   100fc:	00e78b63          	beq	a5,a4,10112 <deregister_tm_clones+0x22>
   10100:	00000337          	lui	t1,0x0
   10104:	00030313          	mv	t1,t1
   10108:	00030563          	beqz	t1,10112 <deregister_tm_clones+0x22>
   1010c:	a6850513          	addi	a0,a0,-1432
   10110:	8302                	jr	t1
   10112:	8082                	ret

0000000000010114 <register_tm_clones>:
   10114:	67f5                	lui	a5,0x1d
   10116:	6575                	lui	a0,0x1d
   10118:	a6878593          	addi	a1,a5,-1432 # 1ca68 <__TMC_END__>
   1011c:	a6850793          	addi	a5,a0,-1432 # 1ca68 <__TMC_END__>
   10120:	8d9d                	sub	a1,a1,a5
   10122:	858d                	srai	a1,a1,0x3
   10124:	4789                	li	a5,2
   10126:	02f5c5b3          	div	a1,a1,a5
   1012a:	c991                	beqz	a1,1013e <register_tm_clones+0x2a>
   1012c:	00000337          	lui	t1,0x0
   10130:	00030313          	mv	t1,t1
   10134:	00030563          	beqz	t1,1013e <register_tm_clones+0x2a>
   10138:	a6850513          	addi	a0,a0,-1432
   1013c:	8302                	jr	t1
   1013e:	8082                	ret

0000000000010140 <__do_global_dtors_aux>:
   10140:	8701c703          	lbu	a4,-1936(gp) # 1cad8 <completed.5184>
   10144:	eb15                	bnez	a4,10178 <__do_global_dtors_aux+0x38>
   10146:	1141                	addi	sp,sp,-16
   10148:	e022                	sd	s0,0(sp)
   1014a:	e406                	sd	ra,8(sp)
   1014c:	843e                	mv	s0,a5
   1014e:	fa3ff0ef          	jal	ra,100f0 <deregister_tm_clones>
   10152:	000007b7          	lui	a5,0x0
   10156:	00078793          	mv	a5,a5
   1015a:	cb81                	beqz	a5,1016a <__do_global_dtors_aux+0x2a>
   1015c:	656d                	lui	a0,0x1b
   1015e:	95050513          	addi	a0,a0,-1712 # 1a950 <__EH_FRAME_BEGIN__>
   10162:	ffff0097          	auipc	ra,0xffff0
   10166:	e9e080e7          	jalr	-354(ra) # 0 <_start-0x100b0>
   1016a:	4785                	li	a5,1
   1016c:	86f18823          	sb	a5,-1936(gp) # 1cad8 <completed.5184>
   10170:	60a2                	ld	ra,8(sp)
   10172:	6402                	ld	s0,0(sp)
   10174:	0141                	addi	sp,sp,16
   10176:	8082                	ret
   10178:	8082                	ret

000000000001017a <frame_dummy>:
   1017a:	000007b7          	lui	a5,0x0
   1017e:	00078793          	mv	a5,a5
   10182:	cf91                	beqz	a5,1019e <frame_dummy+0x24>
   10184:	656d                	lui	a0,0x1b
   10186:	1141                	addi	sp,sp,-16
   10188:	87818593          	addi	a1,gp,-1928 # 1cae0 <object.5189>
   1018c:	95050513          	addi	a0,a0,-1712 # 1a950 <__EH_FRAME_BEGIN__>
   10190:	e406                	sd	ra,8(sp)
   10192:	ffff0097          	auipc	ra,0xffff0
   10196:	e6e080e7          	jalr	-402(ra) # 0 <_start-0x100b0>
   1019a:	60a2                	ld	ra,8(sp)
   1019c:	0141                	addi	sp,sp,16
   1019e:	f77ff06f          	j	10114 <register_tm_clones>

00000000000101a2 <main>:
   101a2:	1141                	addi	sp,sp,-16
   101a4:	e406                	sd	ra,8(sp)
   101a6:	e022                	sd	s0,0(sp)
   101a8:	0800                	addi	s0,sp,16
   101aa:	67e9                	lui	a5,0x1a
   101ac:	c5078513          	addi	a0,a5,-944 # 19c50 <__clzdi2+0x32>
   101b0:	1ae000ef          	jal	ra,1035e <printf>
   101b4:	0001                	nop
   101b6:	60a2                	ld	ra,8(sp)
   101b8:	6402                	ld	s0,0(sp)
   101ba:	0141                	addi	sp,sp,16
   101bc:	8082                	ret

00000000000101be <atexit>:
   101be:	85aa                	mv	a1,a0
   101c0:	4681                	li	a3,0
   101c2:	4601                	li	a2,0
   101c4:	4501                	li	a0,0
   101c6:	0df0106f          	j	11aa4 <__register_exitproc>

00000000000101ca <exit>:
   101ca:	1141                	addi	sp,sp,-16
   101cc:	4581                	li	a1,0
   101ce:	e022                	sd	s0,0(sp)
   101d0:	e406                	sd	ra,8(sp)
   101d2:	842a                	mv	s0,a0
   101d4:	135010ef          	jal	ra,11b08 <__call_exitprocs>
   101d8:	8281b503          	ld	a0,-2008(gp) # 1ca90 <_global_impure_ptr>
   101dc:	6d3c                	ld	a5,88(a0)
   101de:	c391                	beqz	a5,101e2 <exit+0x18>
   101e0:	9782                	jalr	a5
   101e2:	8522                	mv	a0,s0
   101e4:	528080ef          	jal	ra,1870c <_exit>

00000000000101e8 <__libc_fini_array>:
   101e8:	7179                	addi	sp,sp,-48
   101ea:	67f1                	lui	a5,0x1c
   101ec:	6771                	lui	a4,0x1c
   101ee:	f022                	sd	s0,32(sp)
   101f0:	96070713          	addi	a4,a4,-1696 # 1b960 <__init_array_end>
   101f4:	96878413          	addi	s0,a5,-1688 # 1b968 <__fini_array_end>
   101f8:	8c19                	sub	s0,s0,a4
   101fa:	ec26                	sd	s1,24(sp)
   101fc:	e84a                	sd	s2,16(sp)
   101fe:	e44e                	sd	s3,8(sp)
   10200:	f406                	sd	ra,40(sp)
   10202:	840d                	srai	s0,s0,0x3
   10204:	4481                	li	s1,0
   10206:	96878913          	addi	s2,a5,-1688
   1020a:	59e1                	li	s3,-8
   1020c:	00941a63          	bne	s0,s1,10220 <__libc_fini_array+0x38>
   10210:	7402                	ld	s0,32(sp)
   10212:	70a2                	ld	ra,40(sp)
   10214:	64e2                	ld	s1,24(sp)
   10216:	6942                	ld	s2,16(sp)
   10218:	69a2                	ld	s3,8(sp)
   1021a:	6145                	addi	sp,sp,48
   1021c:	ed3ff06f          	j	100ee <_fini>
   10220:	033487b3          	mul	a5,s1,s3
   10224:	0485                	addi	s1,s1,1
   10226:	97ca                	add	a5,a5,s2
   10228:	ff87b783          	ld	a5,-8(a5)
   1022c:	9782                	jalr	a5
   1022e:	bff9                	j	1020c <__libc_fini_array+0x24>

0000000000010230 <__libc_init_array>:
   10230:	1101                	addi	sp,sp,-32
   10232:	e822                	sd	s0,16(sp)
   10234:	e426                	sd	s1,8(sp)
   10236:	6471                	lui	s0,0x1c
   10238:	64f1                	lui	s1,0x1c
   1023a:	95448793          	addi	a5,s1,-1708 # 1b954 <__preinit_array_end>
   1023e:	95440413          	addi	s0,s0,-1708 # 1b954 <__preinit_array_end>
   10242:	8c1d                	sub	s0,s0,a5
   10244:	e04a                	sd	s2,0(sp)
   10246:	ec06                	sd	ra,24(sp)
   10248:	840d                	srai	s0,s0,0x3
   1024a:	95448493          	addi	s1,s1,-1708
   1024e:	4901                	li	s2,0
   10250:	02891763          	bne	s2,s0,1027e <__libc_init_array+0x4e>
   10254:	64f1                	lui	s1,0x1c
   10256:	e99ff0ef          	jal	ra,100ee <_fini>
   1025a:	6471                	lui	s0,0x1c
   1025c:	95848793          	addi	a5,s1,-1704 # 1b958 <__frame_dummy_init_array_entry>
   10260:	96040413          	addi	s0,s0,-1696 # 1b960 <__init_array_end>
   10264:	8c1d                	sub	s0,s0,a5
   10266:	840d                	srai	s0,s0,0x3
   10268:	95848493          	addi	s1,s1,-1704
   1026c:	4901                	li	s2,0
   1026e:	00891d63          	bne	s2,s0,10288 <__libc_init_array+0x58>
   10272:	60e2                	ld	ra,24(sp)
   10274:	6442                	ld	s0,16(sp)
   10276:	64a2                	ld	s1,8(sp)
   10278:	6902                	ld	s2,0(sp)
   1027a:	6105                	addi	sp,sp,32
   1027c:	8082                	ret
   1027e:	609c                	ld	a5,0(s1)
   10280:	0905                	addi	s2,s2,1
   10282:	04a1                	addi	s1,s1,8
   10284:	9782                	jalr	a5
   10286:	b7e9                	j	10250 <__libc_init_array+0x20>
   10288:	609c                	ld	a5,0(s1)
   1028a:	0905                	addi	s2,s2,1
   1028c:	04a1                	addi	s1,s1,8
   1028e:	9782                	jalr	a5
   10290:	bff9                	j	1026e <__libc_init_array+0x3e>

0000000000010292 <memset>:
   10292:	483d                	li	a6,15
   10294:	872a                	mv	a4,a0
   10296:	02c87163          	bleu	a2,a6,102b8 <memset+0x26>
   1029a:	00f77793          	andi	a5,a4,15
   1029e:	e3c1                	bnez	a5,1031e <memset+0x8c>
   102a0:	e1bd                	bnez	a1,10306 <memset+0x74>
   102a2:	ff067693          	andi	a3,a2,-16
   102a6:	8a3d                	andi	a2,a2,15
   102a8:	96ba                	add	a3,a3,a4
   102aa:	e30c                	sd	a1,0(a4)
   102ac:	e70c                	sd	a1,8(a4)
   102ae:	0741                	addi	a4,a4,16
   102b0:	fed76de3          	bltu	a4,a3,102aa <memset+0x18>
   102b4:	e211                	bnez	a2,102b8 <memset+0x26>
   102b6:	8082                	ret
   102b8:	40c806b3          	sub	a3,a6,a2
   102bc:	068a                	slli	a3,a3,0x2
   102be:	00000297          	auipc	t0,0x0
   102c2:	9696                	add	a3,a3,t0
   102c4:	00a68067          	jr	10(a3)
   102c8:	00b70723          	sb	a1,14(a4)
   102cc:	00b706a3          	sb	a1,13(a4)
   102d0:	00b70623          	sb	a1,12(a4)
   102d4:	00b705a3          	sb	a1,11(a4)
   102d8:	00b70523          	sb	a1,10(a4)
   102dc:	00b704a3          	sb	a1,9(a4)
   102e0:	00b70423          	sb	a1,8(a4)
   102e4:	00b703a3          	sb	a1,7(a4)
   102e8:	00b70323          	sb	a1,6(a4)
   102ec:	00b702a3          	sb	a1,5(a4)
   102f0:	00b70223          	sb	a1,4(a4)
   102f4:	00b701a3          	sb	a1,3(a4)
   102f8:	00b70123          	sb	a1,2(a4)
   102fc:	00b700a3          	sb	a1,1(a4)
   10300:	00b70023          	sb	a1,0(a4)
   10304:	8082                	ret
   10306:	0ff5f593          	andi	a1,a1,255
   1030a:	00859693          	slli	a3,a1,0x8
   1030e:	8dd5                	or	a1,a1,a3
   10310:	01059693          	slli	a3,a1,0x10
   10314:	8dd5                	or	a1,a1,a3
   10316:	02059693          	slli	a3,a1,0x20
   1031a:	8dd5                	or	a1,a1,a3
   1031c:	b759                	j	102a2 <memset+0x10>
   1031e:	00279693          	slli	a3,a5,0x2
   10322:	00000297          	auipc	t0,0x0
   10326:	9696                	add	a3,a3,t0
   10328:	8286                	mv	t0,ra
   1032a:	fa2680e7          	jalr	-94(a3)
   1032e:	8096                	mv	ra,t0
   10330:	17c1                	addi	a5,a5,-16
   10332:	8f1d                	sub	a4,a4,a5
   10334:	963e                	add	a2,a2,a5
   10336:	f8c871e3          	bleu	a2,a6,102b8 <memset+0x26>
   1033a:	b79d                	j	102a0 <memset+0xe>

000000000001033c <_printf_r>:
   1033c:	715d                	addi	sp,sp,-80
   1033e:	f032                	sd	a2,32(sp)
   10340:	f436                	sd	a3,40(sp)
   10342:	f83a                	sd	a4,48(sp)
   10344:	fc3e                	sd	a5,56(sp)
   10346:	e0c2                	sd	a6,64(sp)
   10348:	e4c6                	sd	a7,72(sp)
   1034a:	862e                	mv	a2,a1
   1034c:	690c                	ld	a1,16(a0)
   1034e:	1014                	addi	a3,sp,32
   10350:	ec06                	sd	ra,24(sp)
   10352:	e436                	sd	a3,8(sp)
   10354:	034000ef          	jal	ra,10388 <_vfprintf_r>
   10358:	60e2                	ld	ra,24(sp)
   1035a:	6161                	addi	sp,sp,80
   1035c:	8082                	ret

000000000001035e <printf>:
   1035e:	711d                	addi	sp,sp,-96
   10360:	e4be                	sd	a5,72(sp)
   10362:	8301b783          	ld	a5,-2000(gp) # 1ca98 <_impure_ptr>
   10366:	f832                	sd	a2,48(sp)
   10368:	fc36                	sd	a3,56(sp)
   1036a:	f42e                	sd	a1,40(sp)
   1036c:	e0ba                	sd	a4,64(sp)
   1036e:	e8c2                	sd	a6,80(sp)
   10370:	ecc6                	sd	a7,88(sp)
   10372:	6b8c                	ld	a1,16(a5)
   10374:	1034                	addi	a3,sp,40
   10376:	862a                	mv	a2,a0
   10378:	853e                	mv	a0,a5
   1037a:	ec06                	sd	ra,24(sp)
   1037c:	e436                	sd	a3,8(sp)
   1037e:	00a000ef          	jal	ra,10388 <_vfprintf_r>
   10382:	60e2                	ld	ra,24(sp)
   10384:	6125                	addi	sp,sp,96
   10386:	8082                	ret

0000000000010388 <_vfprintf_r>:
   10388:	d9010113          	addi	sp,sp,-624
   1038c:	26113423          	sd	ra,616(sp)
   10390:	24913c23          	sd	s1,600(sp)
   10394:	25213823          	sd	s2,592(sp)
   10398:	25313423          	sd	s3,584(sp)
   1039c:	23813023          	sd	s8,544(sp)
   103a0:	892e                	mv	s2,a1
   103a2:	84b2                	mv	s1,a2
   103a4:	8c36                	mv	s8,a3
   103a6:	26813023          	sd	s0,608(sp)
   103aa:	25413023          	sd	s4,576(sp)
   103ae:	23513c23          	sd	s5,568(sp)
   103b2:	23613823          	sd	s6,560(sp)
   103b6:	23713423          	sd	s7,552(sp)
   103ba:	21913c23          	sd	s9,536(sp)
   103be:	21a13823          	sd	s10,528(sp)
   103c2:	21b13423          	sd	s11,520(sp)
   103c6:	89aa                	mv	s3,a0
   103c8:	5cc030ef          	jal	ra,13994 <_localeconv_r>
   103cc:	611c                	ld	a5,0(a0)
   103ce:	853e                	mv	a0,a5
   103d0:	e8be                	sd	a5,80(sp)
   103d2:	1c7040ef          	jal	ra,14d98 <strlen>
   103d6:	f02a                	sd	a0,32(sp)
   103d8:	f982                	sd	zero,240(sp)
   103da:	fd82                	sd	zero,248(sp)
   103dc:	00098863          	beqz	s3,103ec <_vfprintf_r+0x64>
   103e0:	0509a783          	lw	a5,80(s3)
   103e4:	e781                	bnez	a5,103ec <_vfprintf_r+0x64>
   103e6:	854e                	mv	a0,s3
   103e8:	249010ef          	jal	ra,11e30 <__sinit>
   103ec:	01091783          	lh	a5,16(s2)
   103f0:	03279713          	slli	a4,a5,0x32
   103f4:	00074d63          	bltz	a4,1040e <_vfprintf_r+0x86>
   103f8:	6689                	lui	a3,0x2
   103fa:	0ac92703          	lw	a4,172(s2)
   103fe:	8fd5                	or	a5,a5,a3
   10400:	00f91823          	sh	a5,16(s2)
   10404:	77f9                	lui	a5,0xffffe
   10406:	17fd                	addi	a5,a5,-1
   10408:	8ff9                	and	a5,a5,a4
   1040a:	0af92623          	sw	a5,172(s2)
   1040e:	01095783          	lhu	a5,16(s2)
   10412:	8ba1                	andi	a5,a5,8
   10414:	c3bd                	beqz	a5,1047a <_vfprintf_r+0xf2>
   10416:	01893783          	ld	a5,24(s2)
   1041a:	c3a5                	beqz	a5,1047a <_vfprintf_r+0xf2>
   1041c:	01095783          	lhu	a5,16(s2)
   10420:	4729                	li	a4,10
   10422:	8be9                	andi	a5,a5,26
   10424:	06e79363          	bne	a5,a4,1048a <_vfprintf_r+0x102>
   10428:	01291783          	lh	a5,18(s2)
   1042c:	0407cf63          	bltz	a5,1048a <_vfprintf_r+0x102>
   10430:	86e2                	mv	a3,s8
   10432:	8626                	mv	a2,s1
   10434:	85ca                	mv	a1,s2
   10436:	854e                	mv	a0,s3
   10438:	504010ef          	jal	ra,1193c <__sbprintf>
   1043c:	f82a                	sd	a0,48(sp)
   1043e:	26813083          	ld	ra,616(sp)
   10442:	26013403          	ld	s0,608(sp)
   10446:	7542                	ld	a0,48(sp)
   10448:	25813483          	ld	s1,600(sp)
   1044c:	25013903          	ld	s2,592(sp)
   10450:	24813983          	ld	s3,584(sp)
   10454:	24013a03          	ld	s4,576(sp)
   10458:	23813a83          	ld	s5,568(sp)
   1045c:	23013b03          	ld	s6,560(sp)
   10460:	22813b83          	ld	s7,552(sp)
   10464:	22013c03          	ld	s8,544(sp)
   10468:	21813c83          	ld	s9,536(sp)
   1046c:	21013d03          	ld	s10,528(sp)
   10470:	20813d83          	ld	s11,520(sp)
   10474:	27010113          	addi	sp,sp,624
   10478:	8082                	ret
   1047a:	85ca                	mv	a1,s2
   1047c:	854e                	mv	a0,s3
   1047e:	54c010ef          	jal	ra,119ca <__swsetup_r>
   10482:	dd49                	beqz	a0,1041c <_vfprintf_r+0x94>
   10484:	57fd                	li	a5,-1
   10486:	f83e                	sd	a5,48(sp)
   10488:	bf5d                	j	1043e <_vfprintf_r+0xb6>
   1048a:	67e9                	lui	a5,0x1a
   1048c:	c6078793          	addi	a5,a5,-928 # 19c60 <__clzdi2+0x42>
   10490:	f13e                	sd	a5,160(sp)
   10492:	67e9                	lui	a5,0x1a
   10494:	18010a93          	addi	s5,sp,384
   10498:	de078793          	addi	a5,a5,-544 # 19de0 <zeroes.4413>
   1049c:	e256                	sd	s5,256(sp)
   1049e:	ea02                	sd	zero,272(sp)
   104a0:	10012423          	sw	zero,264(sp)
   104a4:	4a01                	li	s4,0
   104a6:	8bd6                	mv	s7,s5
   104a8:	f482                	sd	zero,104(sp)
   104aa:	f082                	sd	zero,96(sp)
   104ac:	e002                	sd	zero,0(sp)
   104ae:	e482                	sd	zero,72(sp)
   104b0:	ec82                	sd	zero,88(sp)
   104b2:	f802                	sd	zero,48(sp)
   104b4:	e83e                	sd	a5,16(sp)
   104b6:	8426                	mv	s0,s1
   104b8:	02500713          	li	a4,37
   104bc:	00044783          	lbu	a5,0(s0)
   104c0:	c399                	beqz	a5,104c6 <_vfprintf_r+0x13e>
   104c2:	08e79663          	bne	a5,a4,1054e <_vfprintf_r+0x1c6>
   104c6:	40940b3b          	subw	s6,s0,s1
   104ca:	020b0f63          	beqz	s6,10508 <_vfprintf_r+0x180>
   104ce:	67d2                	ld	a5,272(sp)
   104d0:	009bb023          	sd	s1,0(s7)
   104d4:	016bb423          	sd	s6,8(s7)
   104d8:	97da                	add	a5,a5,s6
   104da:	ea3e                	sd	a5,272(sp)
   104dc:	10812783          	lw	a5,264(sp)
   104e0:	0bc1                	addi	s7,s7,16
   104e2:	0017871b          	addiw	a4,a5,1
   104e6:	10e12423          	sw	a4,264(sp)
   104ea:	479d                	li	a5,7
   104ec:	00e7da63          	ble	a4,a5,10500 <_vfprintf_r+0x178>
   104f0:	0210                	addi	a2,sp,256
   104f2:	85ca                	mv	a1,s2
   104f4:	854e                	mv	a0,s3
   104f6:	64f050ef          	jal	ra,16344 <__sprint_r>
   104fa:	52051863          	bnez	a0,10a2a <_vfprintf_r+0x6a2>
   104fe:	8bd6                	mv	s7,s5
   10500:	57c2                	lw	a5,48(sp)
   10502:	016787bb          	addw	a5,a5,s6
   10506:	f83e                	sd	a5,48(sp)
   10508:	00044783          	lbu	a5,0(s0)
   1050c:	e399                	bnez	a5,10512 <_vfprintf_r+0x18a>
   1050e:	40c0106f          	j	1191a <_vfprintf_r+0x1592>
   10512:	00140793          	addi	a5,s0,1
   10516:	0c0107a3          	sb	zero,207(sp)
   1051a:	5d7d                	li	s10,-1
   1051c:	f402                	sd	zero,40(sp)
   1051e:	4401                	li	s0,0
   10520:	05a00d93          	li	s11,90
   10524:	4ca9                	li	s9,10
   10526:	0007cb03          	lbu	s6,0(a5)
   1052a:	00178713          	addi	a4,a5,1
   1052e:	ec3a                	sd	a4,24(sp)
   10530:	46a5                	li	a3,9
   10532:	02a00613          	li	a2,42
   10536:	fe0b079b          	addiw	a5,s6,-32
   1053a:	0007871b          	sext.w	a4,a5
   1053e:	3cede5e3          	bltu	s11,a4,11108 <_vfprintf_r+0xd80>
   10542:	770a                	ld	a4,160(sp)
   10544:	1782                	slli	a5,a5,0x20
   10546:	83f9                	srli	a5,a5,0x1e
   10548:	97ba                	add	a5,a5,a4
   1054a:	439c                	lw	a5,0(a5)
   1054c:	8782                	jr	a5
   1054e:	0405                	addi	s0,s0,1
   10550:	b7b5                	j	104bc <_vfprintf_r+0x134>
   10552:	0001a7b7          	lui	a5,0x1a
   10556:	e5878793          	addi	a5,a5,-424 # 19e58 <zeroes.4413+0x78>
   1055a:	f4be                	sd	a5,104(sp)
   1055c:	008c0793          	addi	a5,s8,8
   10560:	fc3e                	sd	a5,56(sp)
   10562:	02047793          	andi	a5,s0,32
   10566:	26078ae3          	beqz	a5,10fda <_vfprintf_r+0xc52>
   1056a:	000c3c03          	ld	s8,0(s8)
   1056e:	00147793          	andi	a5,s0,1
   10572:	cf81                	beqz	a5,1058a <_vfprintf_r+0x202>
   10574:	000c0b63          	beqz	s8,1058a <_vfprintf_r+0x202>
   10578:	03000793          	li	a5,48
   1057c:	00246413          	ori	s0,s0,2
   10580:	0cf10823          	sb	a5,208(sp)
   10584:	0d6108a3          	sb	s6,209(sp)
   10588:	2401                	sext.w	s0,s0
   1058a:	bff47413          	andi	s0,s0,-1025
   1058e:	2401                	sext.w	s0,s0
   10590:	4789                	li	a5,2
   10592:	1450006f          	j	10ed6 <_vfprintf_r+0xb4e>
   10596:	854e                	mv	a0,s3
   10598:	3fc030ef          	jal	ra,13994 <_localeconv_r>
   1059c:	651c                	ld	a5,8(a0)
   1059e:	853e                	mv	a0,a5
   105a0:	ecbe                	sd	a5,88(sp)
   105a2:	7f6040ef          	jal	ra,14d98 <strlen>
   105a6:	e4aa                	sd	a0,72(sp)
   105a8:	854e                	mv	a0,s3
   105aa:	3ea030ef          	jal	ra,13994 <_localeconv_r>
   105ae:	691c                	ld	a5,16(a0)
   105b0:	e03e                	sd	a5,0(sp)
   105b2:	67a6                	ld	a5,72(sp)
   105b4:	c38d                	beqz	a5,105d6 <_vfprintf_r+0x24e>
   105b6:	6782                	ld	a5,0(sp)
   105b8:	cf99                	beqz	a5,105d6 <_vfprintf_r+0x24e>
   105ba:	0007c783          	lbu	a5,0(a5)
   105be:	cf81                	beqz	a5,105d6 <_vfprintf_r+0x24e>
   105c0:	40046413          	ori	s0,s0,1024
   105c4:	2401                	sext.w	s0,s0
   105c6:	a801                	j	105d6 <_vfprintf_r+0x24e>
   105c8:	0cf14783          	lbu	a5,207(sp)
   105cc:	e789                	bnez	a5,105d6 <_vfprintf_r+0x24e>
   105ce:	02000793          	li	a5,32
   105d2:	0cf107a3          	sb	a5,207(sp)
   105d6:	67e2                	ld	a5,24(sp)
   105d8:	b7b9                	j	10526 <_vfprintf_r+0x19e>
   105da:	00146413          	ori	s0,s0,1
   105de:	b7dd                	j	105c4 <_vfprintf_r+0x23c>
   105e0:	000c2783          	lw	a5,0(s8)
   105e4:	0c21                	addi	s8,s8,8
   105e6:	f43e                	sd	a5,40(sp)
   105e8:	fe07d7e3          	bgez	a5,105d6 <_vfprintf_r+0x24e>
   105ec:	57a2                	lw	a5,40(sp)
   105ee:	40f007bb          	negw	a5,a5
   105f2:	f43e                	sd	a5,40(sp)
   105f4:	00446413          	ori	s0,s0,4
   105f8:	b7f1                	j	105c4 <_vfprintf_r+0x23c>
   105fa:	02b00793          	li	a5,43
   105fe:	bfd1                	j	105d2 <_vfprintf_r+0x24a>
   10600:	6762                	ld	a4,24(sp)
   10602:	67e2                	ld	a5,24(sp)
   10604:	00074b03          	lbu	s6,0(a4)
   10608:	0785                	addi	a5,a5,1
   1060a:	02cb1c63          	bne	s6,a2,10642 <_vfprintf_r+0x2ba>
   1060e:	000c2e03          	lw	t3,0(s8)
   10612:	008c0713          	addi	a4,s8,8
   10616:	000e5363          	bgez	t3,1061c <_vfprintf_r+0x294>
   1061a:	5e7d                	li	t3,-1
   1061c:	000e0d1b          	sext.w	s10,t3
   10620:	8c3a                	mv	s8,a4
   10622:	ec3e                	sd	a5,24(sp)
   10624:	bf4d                	j	105d6 <_vfprintf_r+0x24e>
   10626:	03ac8e3b          	mulw	t3,s9,s10
   1062a:	0785                	addi	a5,a5,1
   1062c:	fff7cb03          	lbu	s6,-1(a5)
   10630:	00ee0d3b          	addw	s10,t3,a4
   10634:	fd0b059b          	addiw	a1,s6,-48
   10638:	872e                	mv	a4,a1
   1063a:	feb6f6e3          	bleu	a1,a3,10626 <_vfprintf_r+0x29e>
   1063e:	ec3e                	sd	a5,24(sp)
   10640:	bddd                	j	10536 <_vfprintf_r+0x1ae>
   10642:	4d01                	li	s10,0
   10644:	bfc5                	j	10634 <_vfprintf_r+0x2ac>
   10646:	08046413          	ori	s0,s0,128
   1064a:	bfad                	j	105c4 <_vfprintf_r+0x23c>
   1064c:	67e2                	ld	a5,24(sp)
   1064e:	f402                	sd	zero,40(sp)
   10650:	5722                	lw	a4,40(sp)
   10652:	fd0b0b1b          	addiw	s6,s6,-48
   10656:	0785                	addi	a5,a5,1
   10658:	02ec873b          	mulw	a4,s9,a4
   1065c:	00eb073b          	addw	a4,s6,a4
   10660:	fff7cb03          	lbu	s6,-1(a5)
   10664:	f43a                	sd	a4,40(sp)
   10666:	fd0b071b          	addiw	a4,s6,-48
   1066a:	fee6f3e3          	bleu	a4,a3,10650 <_vfprintf_r+0x2c8>
   1066e:	bfc1                	j	1063e <_vfprintf_r+0x2b6>
   10670:	00846413          	ori	s0,s0,8
   10674:	bf81                	j	105c4 <_vfprintf_r+0x23c>
   10676:	67e2                	ld	a5,24(sp)
   10678:	0007c703          	lbu	a4,0(a5)
   1067c:	06800793          	li	a5,104
   10680:	00f71863          	bne	a4,a5,10690 <_vfprintf_r+0x308>
   10684:	67e2                	ld	a5,24(sp)
   10686:	20046413          	ori	s0,s0,512
   1068a:	0785                	addi	a5,a5,1
   1068c:	ec3e                	sd	a5,24(sp)
   1068e:	bf1d                	j	105c4 <_vfprintf_r+0x23c>
   10690:	04046413          	ori	s0,s0,64
   10694:	bf05                	j	105c4 <_vfprintf_r+0x23c>
   10696:	67e2                	ld	a5,24(sp)
   10698:	0007c703          	lbu	a4,0(a5)
   1069c:	06c00793          	li	a5,108
   106a0:	00f71863          	bne	a4,a5,106b0 <_vfprintf_r+0x328>
   106a4:	67e2                	ld	a5,24(sp)
   106a6:	0785                	addi	a5,a5,1
   106a8:	ec3e                	sd	a5,24(sp)
   106aa:	02046413          	ori	s0,s0,32
   106ae:	bf19                	j	105c4 <_vfprintf_r+0x23c>
   106b0:	01046413          	ori	s0,s0,16
   106b4:	bf01                	j	105c4 <_vfprintf_r+0x23c>
   106b6:	008c0793          	addi	a5,s8,8
   106ba:	fc3e                	sd	a5,56(sp)
   106bc:	000c2783          	lw	a5,0(s8)
   106c0:	0c0107a3          	sb	zero,207(sp)
   106c4:	10f10c23          	sb	a5,280(sp)
   106c8:	4c01                	li	s8,0
   106ca:	4d05                	li	s10,1
   106cc:	4701                	li	a4,0
   106ce:	e402                	sd	zero,8(sp)
   106d0:	4c81                	li	s9,0
   106d2:	4d81                	li	s11,0
   106d4:	0a24                	addi	s1,sp,280
   106d6:	86ba                	mv	a3,a4
   106d8:	01a75363          	ble	s10,a4,106de <_vfprintf_r+0x356>
   106dc:	86ea                	mv	a3,s10
   106de:	0cf14603          	lbu	a2,207(sp)
   106e2:	0006879b          	sext.w	a5,a3
   106e6:	e0be                	sd	a5,64(sp)
   106e8:	c601                	beqz	a2,106f0 <_vfprintf_r+0x368>
   106ea:	0016879b          	addiw	a5,a3,1
   106ee:	e0be                	sd	a5,64(sp)
   106f0:	00247693          	andi	a3,s0,2
   106f4:	0006879b          	sext.w	a5,a3
   106f8:	f8be                	sd	a5,112(sp)
   106fa:	c781                	beqz	a5,10702 <_vfprintf_r+0x37a>
   106fc:	4786                	lw	a5,64(sp)
   106fe:	2789                	addiw	a5,a5,2
   10700:	e0be                	sd	a5,64(sp)
   10702:	08447793          	andi	a5,s0,132
   10706:	fcbe                	sd	a5,120(sp)
   10708:	efa9                	bnez	a5,10762 <_vfprintf_r+0x3da>
   1070a:	57a2                	lw	a5,40(sp)
   1070c:	4686                	lw	a3,64(sp)
   1070e:	40d786bb          	subw	a3,a5,a3
   10712:	04d05863          	blez	a3,10762 <_vfprintf_r+0x3da>
   10716:	67e9                	lui	a5,0x1a
   10718:	48c1                	li	a7,16
   1071a:	dd078813          	addi	a6,a5,-560 # 19dd0 <blanks.4412>
   1071e:	4e9d                	li	t4,7
   10720:	10812583          	lw	a1,264(sp)
   10724:	010bb023          	sd	a6,0(s7)
   10728:	6652                	ld	a2,272(sp)
   1072a:	0015851b          	addiw	a0,a1,1
   1072e:	85aa                	mv	a1,a0
   10730:	010b8f13          	addi	t5,s7,16
   10734:	1ed8c3e3          	blt	a7,a3,1111a <_vfprintf_r+0xd92>
   10738:	00dbb423          	sd	a3,8(s7)
   1073c:	96b2                	add	a3,a3,a2
   1073e:	ea36                	sd	a3,272(sp)
   10740:	10a12423          	sw	a0,264(sp)
   10744:	469d                	li	a3,7
   10746:	8bfa                	mv	s7,t5
   10748:	00a6dd63          	ble	a0,a3,10762 <_vfprintf_r+0x3da>
   1074c:	0210                	addi	a2,sp,256
   1074e:	85ca                	mv	a1,s2
   10750:	854e                	mv	a0,s3
   10752:	e13a                	sd	a4,128(sp)
   10754:	3f1050ef          	jal	ra,16344 <__sprint_r>
   10758:	c119                	beqz	a0,1075e <_vfprintf_r+0x3d6>
   1075a:	1820106f          	j	118dc <_vfprintf_r+0x1554>
   1075e:	670a                	ld	a4,128(sp)
   10760:	8bd6                	mv	s7,s5
   10762:	0cf14683          	lbu	a3,207(sp)
   10766:	c2a1                	beqz	a3,107a6 <_vfprintf_r+0x41e>
   10768:	0cf10693          	addi	a3,sp,207
   1076c:	00dbb023          	sd	a3,0(s7)
   10770:	4685                	li	a3,1
   10772:	00dbb423          	sd	a3,8(s7)
   10776:	66d2                	ld	a3,272(sp)
   10778:	0bc1                	addi	s7,s7,16
   1077a:	0685                	addi	a3,a3,1
   1077c:	ea36                	sd	a3,272(sp)
   1077e:	10812683          	lw	a3,264(sp)
   10782:	0016861b          	addiw	a2,a3,1
   10786:	10c12423          	sw	a2,264(sp)
   1078a:	469d                	li	a3,7
   1078c:	00c6dd63          	ble	a2,a3,107a6 <_vfprintf_r+0x41e>
   10790:	0210                	addi	a2,sp,256
   10792:	85ca                	mv	a1,s2
   10794:	854e                	mv	a0,s3
   10796:	e13a                	sd	a4,128(sp)
   10798:	3ad050ef          	jal	ra,16344 <__sprint_r>
   1079c:	c119                	beqz	a0,107a2 <_vfprintf_r+0x41a>
   1079e:	13e0106f          	j	118dc <_vfprintf_r+0x1554>
   107a2:	670a                	ld	a4,128(sp)
   107a4:	8bd6                	mv	s7,s5
   107a6:	77c6                	ld	a5,112(sp)
   107a8:	cf9d                	beqz	a5,107e6 <_vfprintf_r+0x45e>
   107aa:	0994                	addi	a3,sp,208
   107ac:	00dbb023          	sd	a3,0(s7)
   107b0:	4689                	li	a3,2
   107b2:	00dbb423          	sd	a3,8(s7)
   107b6:	66d2                	ld	a3,272(sp)
   107b8:	0bc1                	addi	s7,s7,16
   107ba:	0689                	addi	a3,a3,2
   107bc:	ea36                	sd	a3,272(sp)
   107be:	10812683          	lw	a3,264(sp)
   107c2:	0016861b          	addiw	a2,a3,1
   107c6:	10c12423          	sw	a2,264(sp)
   107ca:	469d                	li	a3,7
   107cc:	00c6dd63          	ble	a2,a3,107e6 <_vfprintf_r+0x45e>
   107d0:	0210                	addi	a2,sp,256
   107d2:	85ca                	mv	a1,s2
   107d4:	854e                	mv	a0,s3
   107d6:	f8ba                	sd	a4,112(sp)
   107d8:	36d050ef          	jal	ra,16344 <__sprint_r>
   107dc:	c119                	beqz	a0,107e2 <_vfprintf_r+0x45a>
   107de:	0fe0106f          	j	118dc <_vfprintf_r+0x1554>
   107e2:	7746                	ld	a4,112(sp)
   107e4:	8bd6                	mv	s7,s5
   107e6:	77e6                	ld	a5,120(sp)
   107e8:	08000693          	li	a3,128
   107ec:	04d79c63          	bne	a5,a3,10844 <_vfprintf_r+0x4bc>
   107f0:	57a2                	lw	a5,40(sp)
   107f2:	4686                	lw	a3,64(sp)
   107f4:	40d786bb          	subw	a3,a5,a3
   107f8:	04d05663          	blez	a3,10844 <_vfprintf_r+0x4bc>
   107fc:	4841                	li	a6,16
   107fe:	489d                	li	a7,7
   10800:	10812583          	lw	a1,264(sp)
   10804:	67c2                	ld	a5,16(sp)
   10806:	6652                	ld	a2,272(sp)
   10808:	0015851b          	addiw	a0,a1,1
   1080c:	00fbb023          	sd	a5,0(s7)
   10810:	85aa                	mv	a1,a0
   10812:	010b8e93          	addi	t4,s7,16
   10816:	14d840e3          	blt	a6,a3,11156 <_vfprintf_r+0xdce>
   1081a:	00dbb423          	sd	a3,8(s7)
   1081e:	96b2                	add	a3,a3,a2
   10820:	ea36                	sd	a3,272(sp)
   10822:	10a12423          	sw	a0,264(sp)
   10826:	469d                	li	a3,7
   10828:	8bf6                	mv	s7,t4
   1082a:	00a6dd63          	ble	a0,a3,10844 <_vfprintf_r+0x4bc>
   1082e:	0210                	addi	a2,sp,256
   10830:	85ca                	mv	a1,s2
   10832:	854e                	mv	a0,s3
   10834:	f8ba                	sd	a4,112(sp)
   10836:	30f050ef          	jal	ra,16344 <__sprint_r>
   1083a:	c119                	beqz	a0,10840 <_vfprintf_r+0x4b8>
   1083c:	0a00106f          	j	118dc <_vfprintf_r+0x1554>
   10840:	7746                	ld	a4,112(sp)
   10842:	8bd6                	mv	s7,s5
   10844:	41a7073b          	subw	a4,a4,s10
   10848:	04e05463          	blez	a4,10890 <_vfprintf_r+0x508>
   1084c:	4841                	li	a6,16
   1084e:	489d                	li	a7,7
   10850:	10812603          	lw	a2,264(sp)
   10854:	67c2                	ld	a5,16(sp)
   10856:	66d2                	ld	a3,272(sp)
   10858:	0016059b          	addiw	a1,a2,1
   1085c:	00fbb023          	sd	a5,0(s7)
   10860:	862e                	mv	a2,a1
   10862:	010b8513          	addi	a0,s7,16
   10866:	12e844e3          	blt	a6,a4,1118e <_vfprintf_r+0xe06>
   1086a:	00ebb423          	sd	a4,8(s7)
   1086e:	9736                	add	a4,a4,a3
   10870:	ea3a                	sd	a4,272(sp)
   10872:	10b12423          	sw	a1,264(sp)
   10876:	471d                	li	a4,7
   10878:	8baa                	mv	s7,a0
   1087a:	00b75b63          	ble	a1,a4,10890 <_vfprintf_r+0x508>
   1087e:	0210                	addi	a2,sp,256
   10880:	85ca                	mv	a1,s2
   10882:	854e                	mv	a0,s3
   10884:	2c1050ef          	jal	ra,16344 <__sprint_r>
   10888:	c119                	beqz	a0,1088e <_vfprintf_r+0x506>
   1088a:	0520106f          	j	118dc <_vfprintf_r+0x1554>
   1088e:	8bd6                	mv	s7,s5
   10890:	10047693          	andi	a3,s0,256
   10894:	6752                	ld	a4,272(sp)
   10896:	120696e3          	bnez	a3,111c2 <_vfprintf_r+0xe3a>
   1089a:	10812783          	lw	a5,264(sp)
   1089e:	00ed0e33          	add	t3,s10,a4
   108a2:	009bb023          	sd	s1,0(s7)
   108a6:	0017871b          	addiw	a4,a5,1
   108aa:	01abb423          	sd	s10,8(s7)
   108ae:	ea72                	sd	t3,272(sp)
   108b0:	10e12423          	sw	a4,264(sp)
   108b4:	479d                	li	a5,7
   108b6:	0bc1                	addi	s7,s7,16
   108b8:	1ce7dfe3          	ble	a4,a5,11296 <_vfprintf_r+0xf0e>
   108bc:	0210                	addi	a2,sp,256
   108be:	85ca                	mv	a1,s2
   108c0:	854e                	mv	a0,s3
   108c2:	283050ef          	jal	ra,16344 <__sprint_r>
   108c6:	c119                	beqz	a0,108cc <_vfprintf_r+0x544>
   108c8:	0140106f          	j	118dc <_vfprintf_r+0x1554>
   108cc:	8bd6                	mv	s7,s5
   108ce:	1c90006f          	j	11296 <_vfprintf_r+0xf0e>
   108d2:	01046413          	ori	s0,s0,16
   108d6:	2401                	sext.w	s0,s0
   108d8:	008c0793          	addi	a5,s8,8
   108dc:	fc3e                	sd	a5,56(sp)
   108de:	02047793          	andi	a5,s0,32
   108e2:	cb85                	beqz	a5,10912 <_vfprintf_r+0x58a>
   108e4:	000c3c03          	ld	s8,0(s8)
   108e8:	000c5863          	bgez	s8,108f8 <_vfprintf_r+0x570>
   108ec:	02d00793          	li	a5,45
   108f0:	41800c33          	neg	s8,s8
   108f4:	0cf107a3          	sb	a5,207(sp)
   108f8:	57fd                	li	a5,-1
   108fa:	70fd1a63          	bne	s10,a5,1100e <_vfprintf_r+0xc86>
   108fe:	47a5                	li	a5,9
   10900:	7787e563          	bltu	a5,s8,1106a <_vfprintf_r+0xce2>
   10904:	030c0c1b          	addiw	s8,s8,48
   10908:	17810da3          	sb	s8,379(sp)
   1090c:	17b10493          	addi	s1,sp,379
   10910:	a781                	j	11050 <_vfprintf_r+0xcc8>
   10912:	01047793          	andi	a5,s0,16
   10916:	f7f9                	bnez	a5,108e4 <_vfprintf_r+0x55c>
   10918:	04047793          	andi	a5,s0,64
   1091c:	c781                	beqz	a5,10924 <_vfprintf_r+0x59c>
   1091e:	000c1c03          	lh	s8,0(s8)
   10922:	b7d9                	j	108e8 <_vfprintf_r+0x560>
   10924:	20047793          	andi	a5,s0,512
   10928:	c781                	beqz	a5,10930 <_vfprintf_r+0x5a8>
   1092a:	000c0c03          	lb	s8,0(s8)
   1092e:	bf6d                	j	108e8 <_vfprintf_r+0x560>
   10930:	000c2c03          	lw	s8,0(s8)
   10934:	bf55                	j	108e8 <_vfprintf_r+0x560>
   10936:	00847793          	andi	a5,s0,8
   1093a:	cfb9                	beqz	a5,10998 <_vfprintf_r+0x610>
   1093c:	0c3d                	addi	s8,s8,15
   1093e:	ff0c7c13          	andi	s8,s8,-16
   10942:	010c0793          	addi	a5,s8,16
   10946:	fc3e                	sd	a5,56(sp)
   10948:	000c3783          	ld	a5,0(s8)
   1094c:	f9be                	sd	a5,240(sp)
   1094e:	008c3783          	ld	a5,8(s8)
   10952:	fdbe                	sd	a5,248(sp)
   10954:	1988                	addi	a0,sp,240
   10956:	002030ef          	jal	ra,13958 <_ldcheck>
   1095a:	cdaa                	sw	a0,216(sp)
   1095c:	4789                	li	a5,2
   1095e:	04f51c63          	bne	a0,a5,109b6 <_vfprintf_r+0x62e>
   10962:	754e                	ld	a0,240(sp)
   10964:	75ee                	ld	a1,248(sp)
   10966:	4601                	li	a2,0
   10968:	4681                	li	a3,0
   1096a:	727070ef          	jal	ra,18890 <__letf2>
   1096e:	00055663          	bgez	a0,1097a <_vfprintf_r+0x5f2>
   10972:	02d00793          	li	a5,45
   10976:	0cf107a3          	sb	a5,207(sp)
   1097a:	04700793          	li	a5,71
   1097e:	0367c763          	blt	a5,s6,109ac <_vfprintf_r+0x624>
   10982:	0001a4b7          	lui	s1,0x1a
   10986:	e2048493          	addi	s1,s1,-480 # 19e20 <zeroes.4413+0x40>
   1098a:	f7f47413          	andi	s0,s0,-129
   1098e:	2401                	sext.w	s0,s0
   10990:	4c01                	li	s8,0
   10992:	4d0d                	li	s10,3
   10994:	4701                	li	a4,0
   10996:	a5d9                	j	1105c <_vfprintf_r+0xcd4>
   10998:	000c3507          	fld	fa0,0(s8)
   1099c:	008c0793          	addi	a5,s8,8
   109a0:	fc3e                	sd	a5,56(sp)
   109a2:	747080ef          	jal	ra,198e8 <__extenddftf2>
   109a6:	f9aa                	sd	a0,240(sp)
   109a8:	fdae                	sd	a1,248(sp)
   109aa:	b76d                	j	10954 <_vfprintf_r+0x5cc>
   109ac:	0001a4b7          	lui	s1,0x1a
   109b0:	e2848493          	addi	s1,s1,-472 # 19e28 <zeroes.4413+0x48>
   109b4:	bfd9                	j	1098a <_vfprintf_r+0x602>
   109b6:	4785                	li	a5,1
   109b8:	02f51063          	bne	a0,a5,109d8 <_vfprintf_r+0x650>
   109bc:	04700793          	li	a5,71
   109c0:	0167c763          	blt	a5,s6,109ce <_vfprintf_r+0x646>
   109c4:	0001a4b7          	lui	s1,0x1a
   109c8:	e3048493          	addi	s1,s1,-464 # 19e30 <zeroes.4413+0x50>
   109cc:	bf7d                	j	1098a <_vfprintf_r+0x602>
   109ce:	0001a4b7          	lui	s1,0x1a
   109d2:	e3848493          	addi	s1,s1,-456 # 19e38 <zeroes.4413+0x58>
   109d6:	bf55                	j	1098a <_vfprintf_r+0x602>
   109d8:	fdfb7c93          	andi	s9,s6,-33
   109dc:	04100793          	li	a5,65
   109e0:	04fc9c63          	bne	s9,a5,10a38 <_vfprintf_r+0x6b0>
   109e4:	03000793          	li	a5,48
   109e8:	0cf10823          	sb	a5,208(sp)
   109ec:	06100713          	li	a4,97
   109f0:	05800793          	li	a5,88
   109f4:	00eb1463          	bne	s6,a4,109fc <_vfprintf_r+0x674>
   109f8:	07800793          	li	a5,120
   109fc:	0cf108a3          	sb	a5,209(sp)
   10a00:	00246413          	ori	s0,s0,2
   10a04:	06300793          	li	a5,99
   10a08:	2401                	sext.w	s0,s0
   10a0a:	19a7d063          	ble	s10,a5,10b8a <_vfprintf_r+0x802>
   10a0e:	001d059b          	addiw	a1,s10,1
   10a12:	854e                	mv	a0,s3
   10a14:	134030ef          	jal	ra,13b48 <_malloc_r>
   10a18:	84aa                	mv	s1,a0
   10a1a:	16051b63          	bnez	a0,10b90 <_vfprintf_r+0x808>
   10a1e:	01095783          	lhu	a5,16(s2)
   10a22:	0407e793          	ori	a5,a5,64
   10a26:	00f91823          	sh	a5,16(s2)
   10a2a:	01095783          	lhu	a5,16(s2)
   10a2e:	0407f793          	andi	a5,a5,64
   10a32:	a00786e3          	beqz	a5,1043e <_vfprintf_r+0xb6>
   10a36:	b4b9                	j	10484 <_vfprintf_r+0xfc>
   10a38:	57fd                	li	a5,-1
   10a3a:	14fd0d63          	beq	s10,a5,10b94 <_vfprintf_r+0x80c>
   10a3e:	04700793          	li	a5,71
   10a42:	4c01                	li	s8,0
   10a44:	00fc9463          	bne	s9,a5,10a4c <_vfprintf_r+0x6c4>
   10a48:	140d0963          	beqz	s10,10b9a <_vfprintf_r+0x812>
   10a4c:	10046793          	ori	a5,s0,256
   10a50:	7a6e                	ld	s4,248(sp)
   10a52:	2781                	sext.w	a5,a5
   10a54:	e0be                	sd	a5,64(sp)
   10a56:	e102                	sd	zero,128(sp)
   10a58:	7ece                	ld	t4,240(sp)
   10a5a:	000a5963          	bgez	s4,10a6c <_vfprintf_r+0x6e4>
   10a5e:	57fd                	li	a5,-1
   10a60:	17fe                	slli	a5,a5,0x3f
   10a62:	00fa4a33          	xor	s4,s4,a5
   10a66:	02d00793          	li	a5,45
   10a6a:	e13e                	sd	a5,128(sp)
   10a6c:	04100793          	li	a5,65
   10a70:	24fc9b63          	bne	s9,a5,10cc6 <_vfprintf_r+0x93e>
   10a74:	8576                	mv	a0,t4
   10a76:	85d2                	mv	a1,s4
   10a78:	765080ef          	jal	ra,199dc <__trunctfdf2>
   10a7c:	09a8                	addi	a0,sp,216
   10a7e:	04c040ef          	jal	ra,14aca <frexp>
   10a82:	667080ef          	jal	ra,198e8 <__extenddftf2>
   10a86:	0001a7b7          	lui	a5,0x1a
   10a8a:	df078793          	addi	a5,a5,-528 # 19df0 <zeroes.4413+0x10>
   10a8e:	6390                	ld	a2,0(a5)
   10a90:	6794                	ld	a3,8(a5)
   10a92:	6c3070ef          	jal	ra,18954 <__multf3>
   10a96:	4601                	li	a2,0
   10a98:	4681                	li	a3,0
   10a9a:	e52a                	sd	a0,136(sp)
   10a9c:	8dae                	mv	s11,a1
   10a9e:	48b070ef          	jal	ra,18728 <__eqtf2>
   10aa2:	e119                	bnez	a0,10aa8 <_vfprintf_r+0x720>
   10aa4:	4785                	li	a5,1
   10aa6:	cdbe                	sw	a5,216(sp)
   10aa8:	06100793          	li	a5,97
   10aac:	0efb1a63          	bne	s6,a5,10ba0 <_vfprintf_r+0x818>
   10ab0:	0001a7b7          	lui	a5,0x1a
   10ab4:	e4078793          	addi	a5,a5,-448 # 19e40 <zeroes.4413+0x60>
   10ab8:	0001a6b7          	lui	a3,0x1a
   10abc:	e0068693          	addi	a3,a3,-512 # 19e00 <zeroes.4413+0x20>
   10ac0:	6298                	ld	a4,0(a3)
   10ac2:	e43e                	sd	a5,8(sp)
   10ac4:	8a26                	mv	s4,s1
   10ac6:	e93a                	sd	a4,144(sp)
   10ac8:	6698                	ld	a4,8(a3)
   10aca:	fffd079b          	addiw	a5,s10,-1
   10ace:	ed3a                	sd	a4,152(sp)
   10ad0:	664a                	ld	a2,144(sp)
   10ad2:	66ea                	ld	a3,152(sp)
   10ad4:	652a                	ld	a0,136(sp)
   10ad6:	85ee                	mv	a1,s11
   10ad8:	f53e                	sd	a5,168(sp)
   10ada:	67b070ef          	jal	ra,18954 <__multf3>
   10ade:	8daa                	mv	s11,a0
   10ae0:	f8ae                	sd	a1,112(sp)
   10ae2:	4e3080ef          	jal	ra,197c4 <__fixtfsi>
   10ae6:	0005079b          	sext.w	a5,a0
   10aea:	fcbe                	sd	a5,120(sp)
   10aec:	56b080ef          	jal	ra,19856 <__floatsitf>
   10af0:	7746                	ld	a4,112(sp)
   10af2:	86ae                	mv	a3,a1
   10af4:	862a                	mv	a2,a0
   10af6:	85ba                	mv	a1,a4
   10af8:	856e                	mv	a0,s11
   10afa:	4ac080ef          	jal	ra,18fa6 <__subtf3>
   10afe:	67a2                	ld	a5,8(sp)
   10b00:	7766                	ld	a4,120(sp)
   10b02:	0a05                	addi	s4,s4,1
   10b04:	e52a                	sd	a0,136(sp)
   10b06:	00e786b3          	add	a3,a5,a4
   10b0a:	77aa                	ld	a5,168(sp)
   10b0c:	0006c683          	lbu	a3,0(a3)
   10b10:	88aa                	mv	a7,a0
   10b12:	0007871b          	sext.w	a4,a5
   10b16:	f8ba                	sd	a4,112(sp)
   10b18:	feda0fa3          	sb	a3,-1(s4)
   10b1c:	577d                	li	a4,-1
   10b1e:	882e                	mv	a6,a1
   10b20:	8dae                	mv	s11,a1
   10b22:	08e78463          	beq	a5,a4,10baa <_vfprintf_r+0x822>
   10b26:	37fd                	addiw	a5,a5,-1
   10b28:	4601                	li	a2,0
   10b2a:	4681                	li	a3,0
   10b2c:	f53e                	sd	a5,168(sp)
   10b2e:	fd2e                	sd	a1,184(sp)
   10b30:	f92a                	sd	a0,176(sp)
   10b32:	3f7070ef          	jal	ra,18728 <__eqtf2>
   10b36:	77aa                	ld	a5,168(sp)
   10b38:	78ca                	ld	a7,176(sp)
   10b3a:	786a                	ld	a6,184(sp)
   10b3c:	f951                	bnez	a0,10ad0 <_vfprintf_r+0x748>
   10b3e:	0001a7b7          	lui	a5,0x1a
   10b42:	e1078793          	addi	a5,a5,-496 # 19e10 <zeroes.4413+0x30>
   10b46:	0007bd83          	ld	s11,0(a5)
   10b4a:	679c                	ld	a5,8(a5)
   10b4c:	8546                	mv	a0,a7
   10b4e:	866e                	mv	a2,s11
   10b50:	86be                	mv	a3,a5
   10b52:	85c2                	mv	a1,a6
   10b54:	ed3e                	sd	a5,152(sp)
   10b56:	e946                	sd	a7,144(sp)
   10b58:	e542                	sd	a6,136(sp)
   10b5a:	473070ef          	jal	ra,187cc <__getf2>
   10b5e:	04a04c63          	bgtz	a0,10bb6 <_vfprintf_r+0x82e>
   10b62:	67ea                	ld	a5,152(sp)
   10b64:	68ca                	ld	a7,144(sp)
   10b66:	682a                	ld	a6,136(sp)
   10b68:	866e                	mv	a2,s11
   10b6a:	86be                	mv	a3,a5
   10b6c:	8546                	mv	a0,a7
   10b6e:	85c2                	mv	a1,a6
   10b70:	3b9070ef          	jal	ra,18728 <__eqtf2>
   10b74:	cd15                	beqz	a0,10bb0 <_vfprintf_r+0x828>
   10b76:	57c6                	lw	a5,112(sp)
   10b78:	03000693          	li	a3,48
   10b7c:	0607c463          	bltz	a5,10be4 <_vfprintf_r+0x85c>
   10b80:	0a05                	addi	s4,s4,1
   10b82:	feda0fa3          	sb	a3,-1(s4)
   10b86:	37fd                	addiw	a5,a5,-1
   10b88:	bfd5                	j	10b7c <_vfprintf_r+0x7f4>
   10b8a:	4c01                	li	s8,0
   10b8c:	0a24                	addi	s1,sp,280
   10b8e:	bd7d                	j	10a4c <_vfprintf_r+0x6c4>
   10b90:	8c2a                	mv	s8,a0
   10b92:	bd6d                	j	10a4c <_vfprintf_r+0x6c4>
   10b94:	4c01                	li	s8,0
   10b96:	4d19                	li	s10,6
   10b98:	bd55                	j	10a4c <_vfprintf_r+0x6c4>
   10b9a:	8c6a                	mv	s8,s10
   10b9c:	4d05                	li	s10,1
   10b9e:	b57d                	j	10a4c <_vfprintf_r+0x6c4>
   10ba0:	0001a7b7          	lui	a5,0x1a
   10ba4:	e5878793          	addi	a5,a5,-424 # 19e58 <zeroes.4413+0x78>
   10ba8:	bf01                	j	10ab8 <_vfprintf_r+0x730>
   10baa:	57fd                	li	a5,-1
   10bac:	f8be                	sd	a5,112(sp)
   10bae:	bf41                	j	10b3e <_vfprintf_r+0x7b6>
   10bb0:	77e6                	ld	a5,120(sp)
   10bb2:	8b85                	andi	a5,a5,1
   10bb4:	d3e9                	beqz	a5,10b76 <_vfprintf_r+0x7ee>
   10bb6:	67a2                	ld	a5,8(sp)
   10bb8:	f5d2                	sd	s4,232(sp)
   10bba:	03000593          	li	a1,48
   10bbe:	00f7c603          	lbu	a2,15(a5)
   10bc2:	76ae                	ld	a3,232(sp)
   10bc4:	fff68793          	addi	a5,a3,-1
   10bc8:	f5be                	sd	a5,232(sp)
   10bca:	fff6c783          	lbu	a5,-1(a3)
   10bce:	0ec78563          	beq	a5,a2,10cb8 <_vfprintf_r+0x930>
   10bd2:	03900613          	li	a2,57
   10bd6:	0ec79463          	bne	a5,a2,10cbe <_vfprintf_r+0x936>
   10bda:	67a2                	ld	a5,8(sp)
   10bdc:	00a7c783          	lbu	a5,10(a5)
   10be0:	fef68fa3          	sb	a5,-1(a3)
   10be4:	04700713          	li	a4,71
   10be8:	409a0a3b          	subw	s4,s4,s1
   10bec:	4dee                	lw	s11,216(sp)
   10bee:	18ec9463          	bne	s9,a4,10d76 <_vfprintf_r+0x9ee>
   10bf2:	5775                	li	a4,-3
   10bf4:	00edc463          	blt	s11,a4,10bfc <_vfprintf_r+0x874>
   10bf8:	1fbd5463          	ble	s11,s10,10de0 <_vfprintf_r+0xa58>
   10bfc:	3b79                	addiw	s6,s6,-2
   10bfe:	fffd869b          	addiw	a3,s11,-1
   10c02:	cdb6                	sw	a3,216(sp)
   10c04:	fdfb7613          	andi	a2,s6,-33
   10c08:	04100513          	li	a0,65
   10c0c:	0ffb7713          	andi	a4,s6,255
   10c10:	4581                	li	a1,0
   10c12:	00a61663          	bne	a2,a0,10c1e <_vfprintf_r+0x896>
   10c16:	273d                	addiw	a4,a4,15
   10c18:	0ff77713          	andi	a4,a4,255
   10c1c:	4585                	li	a1,1
   10c1e:	0ee10023          	sb	a4,224(sp)
   10c22:	02b00793          	li	a5,43
   10c26:	0006d763          	bgez	a3,10c34 <_vfprintf_r+0x8ac>
   10c2a:	4685                	li	a3,1
   10c2c:	41b686bb          	subw	a3,a3,s11
   10c30:	02d00793          	li	a5,45
   10c34:	0ef100a3          	sb	a5,225(sp)
   10c38:	47a5                	li	a5,9
   10c3a:	16d7da63          	ble	a3,a5,10dae <_vfprintf_r+0xa26>
   10c3e:	0ef10713          	addi	a4,sp,239
   10c42:	853a                	mv	a0,a4
   10c44:	45a9                	li	a1,10
   10c46:	4825                	li	a6,9
   10c48:	02b6e7bb          	remw	a5,a3,a1
   10c4c:	fff70613          	addi	a2,a4,-1
   10c50:	02b6c6bb          	divw	a3,a3,a1
   10c54:	0307879b          	addiw	a5,a5,48
   10c58:	fef70fa3          	sb	a5,-1(a4)
   10c5c:	14d84063          	blt	a6,a3,10d9c <_vfprintf_r+0xa14>
   10c60:	0306879b          	addiw	a5,a3,48
   10c64:	fef60fa3          	sb	a5,-1(a2)
   10c68:	1779                	addi	a4,a4,-2
   10c6a:	0e210613          	addi	a2,sp,226
   10c6e:	12a76963          	bltu	a4,a0,10da0 <_vfprintf_r+0xa18>
   10c72:	119c                	addi	a5,sp,224
   10c74:	40f607bb          	subw	a5,a2,a5
   10c78:	f0be                	sd	a5,96(sp)
   10c7a:	5786                	lw	a5,96(sp)
   10c7c:	4705                	li	a4,1
   10c7e:	01478d3b          	addw	s10,a5,s4
   10c82:	87ea                	mv	a5,s10
   10c84:	01474563          	blt	a4,s4,10c8e <_vfprintf_r+0x906>
   10c88:	00147713          	andi	a4,s0,1
   10c8c:	c701                	beqz	a4,10c94 <_vfprintf_r+0x90c>
   10c8e:	5702                	lw	a4,32(sp)
   10c90:	00e78d3b          	addw	s10,a5,a4
   10c94:	bff47413          	andi	s0,s0,-1025
   10c98:	2401                	sext.w	s0,s0
   10c9a:	10046793          	ori	a5,s0,256
   10c9e:	e0be                	sd	a5,64(sp)
   10ca0:	e402                	sd	zero,8(sp)
   10ca2:	4c81                	li	s9,0
   10ca4:	4d81                	li	s11,0
   10ca6:	678a                	ld	a5,128(sp)
   10ca8:	c789                	beqz	a5,10cb2 <_vfprintf_r+0x92a>
   10caa:	02d00713          	li	a4,45
   10cae:	0ce107a3          	sb	a4,207(sp)
   10cb2:	6406                	ld	s0,64(sp)
   10cb4:	4701                	li	a4,0
   10cb6:	b405                	j	106d6 <_vfprintf_r+0x34e>
   10cb8:	feb68fa3          	sb	a1,-1(a3)
   10cbc:	b719                	j	10bc2 <_vfprintf_r+0x83a>
   10cbe:	2785                	addiw	a5,a5,1
   10cc0:	0ff7f793          	andi	a5,a5,255
   10cc4:	bf31                	j	10be0 <_vfprintf_r+0x858>
   10cc6:	04600793          	li	a5,70
   10cca:	00fc8b63          	beq	s9,a5,10ce0 <_vfprintf_r+0x958>
   10cce:	04500793          	li	a5,69
   10cd2:	8dea                	mv	s11,s10
   10cd4:	00fc9463          	bne	s9,a5,10cdc <_vfprintf_r+0x954>
   10cd8:	001d0d9b          	addiw	s11,s10,1
   10cdc:	4689                	li	a3,2
   10cde:	a019                	j	10ce4 <_vfprintf_r+0x95c>
   10ce0:	8dea                	mv	s11,s10
   10ce2:	468d                	li	a3,3
   10ce4:	09bc                	addi	a5,sp,216
   10ce6:	85f6                	mv	a1,t4
   10ce8:	0e810893          	addi	a7,sp,232
   10cec:	0dc10813          	addi	a6,sp,220
   10cf0:	876e                	mv	a4,s11
   10cf2:	8652                	mv	a2,s4
   10cf4:	854e                	mv	a0,s3
   10cf6:	e476                	sd	t4,8(sp)
   10cf8:	344020ef          	jal	ra,1303c <_ldtoa_r>
   10cfc:	04700793          	li	a5,71
   10d00:	84aa                	mv	s1,a0
   10d02:	6ea2                	ld	t4,8(sp)
   10d04:	00fc9563          	bne	s9,a5,10d0e <_vfprintf_r+0x986>
   10d08:	00147793          	andi	a5,s0,1
   10d0c:	cbb1                	beqz	a5,10d60 <_vfprintf_r+0x9d8>
   10d0e:	04600713          	li	a4,70
   10d12:	01b487b3          	add	a5,s1,s11
   10d16:	02ec9963          	bne	s9,a4,10d48 <_vfprintf_r+0x9c0>
   10d1a:	0004c683          	lbu	a3,0(s1)
   10d1e:	03000713          	li	a4,48
   10d22:	02e69163          	bne	a3,a4,10d44 <_vfprintf_r+0x9bc>
   10d26:	8576                	mv	a0,t4
   10d28:	4601                	li	a2,0
   10d2a:	4681                	li	a3,0
   10d2c:	85d2                	mv	a1,s4
   10d2e:	f8be                	sd	a5,112(sp)
   10d30:	e476                	sd	t4,8(sp)
   10d32:	1f7070ef          	jal	ra,18728 <__eqtf2>
   10d36:	6ea2                	ld	t4,8(sp)
   10d38:	77c6                	ld	a5,112(sp)
   10d3a:	c509                	beqz	a0,10d44 <_vfprintf_r+0x9bc>
   10d3c:	4705                	li	a4,1
   10d3e:	41b70dbb          	subw	s11,a4,s11
   10d42:	cdee                	sw	s11,216(sp)
   10d44:	476e                	lw	a4,216(sp)
   10d46:	97ba                	add	a5,a5,a4
   10d48:	4681                	li	a3,0
   10d4a:	4601                	li	a2,0
   10d4c:	8576                	mv	a0,t4
   10d4e:	85d2                	mv	a1,s4
   10d50:	e43e                	sd	a5,8(sp)
   10d52:	1d7070ef          	jal	ra,18728 <__eqtf2>
   10d56:	67a2                	ld	a5,8(sp)
   10d58:	03000693          	li	a3,48
   10d5c:	e909                	bnez	a0,10d6e <_vfprintf_r+0x9e6>
   10d5e:	f5be                	sd	a5,232(sp)
   10d60:	7a2e                	ld	s4,232(sp)
   10d62:	b549                	j	10be4 <_vfprintf_r+0x85c>
   10d64:	00170613          	addi	a2,a4,1
   10d68:	f5b2                	sd	a2,232(sp)
   10d6a:	00d70023          	sb	a3,0(a4)
   10d6e:	772e                	ld	a4,232(sp)
   10d70:	fef76ae3          	bltu	a4,a5,10d64 <_vfprintf_r+0x9dc>
   10d74:	b7f5                	j	10d60 <_vfprintf_r+0x9d8>
   10d76:	04600713          	li	a4,70
   10d7a:	e8ec92e3          	bne	s9,a4,10bfe <_vfprintf_r+0x876>
   10d7e:	05b05863          	blez	s11,10dce <_vfprintf_r+0xa46>
   10d82:	000d1563          	bnez	s10,10d8c <_vfprintf_r+0xa04>
   10d86:	00147713          	andi	a4,s0,1
   10d8a:	cf59                	beqz	a4,10e28 <_vfprintf_r+0xaa0>
   10d8c:	5782                	lw	a5,32(sp)
   10d8e:	01b7873b          	addw	a4,a5,s11
   10d92:	01a70d3b          	addw	s10,a4,s10
   10d96:	06600b13          	li	s6,102
   10d9a:	a895                	j	10e0e <_vfprintf_r+0xa86>
   10d9c:	8732                	mv	a4,a2
   10d9e:	b56d                	j	10c48 <_vfprintf_r+0x8c0>
   10da0:	0705                	addi	a4,a4,1
   10da2:	fff74783          	lbu	a5,-1(a4)
   10da6:	0605                	addi	a2,a2,1
   10da8:	fef60fa3          	sb	a5,-1(a2)
   10dac:	b5c9                	j	10c6e <_vfprintf_r+0x8e6>
   10dae:	0e210713          	addi	a4,sp,226
   10db2:	e599                	bnez	a1,10dc0 <_vfprintf_r+0xa38>
   10db4:	03000793          	li	a5,48
   10db8:	0ef10123          	sb	a5,226(sp)
   10dbc:	0e310713          	addi	a4,sp,227
   10dc0:	0306879b          	addiw	a5,a3,48
   10dc4:	00170613          	addi	a2,a4,1
   10dc8:	00f70023          	sb	a5,0(a4)
   10dcc:	b55d                	j	10c72 <_vfprintf_r+0x8ea>
   10dce:	000d1563          	bnez	s10,10dd8 <_vfprintf_r+0xa50>
   10dd2:	00147713          	andi	a4,s0,1
   10dd6:	cb39                	beqz	a4,10e2c <_vfprintf_r+0xaa4>
   10dd8:	5782                	lw	a5,32(sp)
   10dda:	0017871b          	addiw	a4,a5,1
   10dde:	bf55                	j	10d92 <_vfprintf_r+0xa0a>
   10de0:	014dcc63          	blt	s11,s4,10df8 <_vfprintf_r+0xa70>
   10de4:	00147713          	andi	a4,s0,1
   10de8:	8d6e                	mv	s10,s11
   10dea:	c701                	beqz	a4,10df2 <_vfprintf_r+0xa6a>
   10dec:	5782                	lw	a5,32(sp)
   10dee:	01b78d3b          	addw	s10,a5,s11
   10df2:	06700b13          	li	s6,103
   10df6:	a821                	j	10e0e <_vfprintf_r+0xa86>
   10df8:	5782                	lw	a5,32(sp)
   10dfa:	06700b13          	li	s6,103
   10dfe:	01478d3b          	addw	s10,a5,s4
   10e02:	01b04663          	bgtz	s11,10e0e <_vfprintf_r+0xa86>
   10e06:	41bd0e3b          	subw	t3,s10,s11
   10e0a:	001e0d1b          	addiw	s10,t3,1
   10e0e:	40047413          	andi	s0,s0,1024
   10e12:	00040c9b          	sext.w	s9,s0
   10e16:	e402                	sd	zero,8(sp)
   10e18:	e80c87e3          	beqz	s9,10ca6 <_vfprintf_r+0x91e>
   10e1c:	4c81                	li	s9,0
   10e1e:	e9b054e3          	blez	s11,10ca6 <_vfprintf_r+0x91e>
   10e22:	0ff00693          	li	a3,255
   10e26:	a01d                	j	10e4c <_vfprintf_r+0xac4>
   10e28:	8d6e                	mv	s10,s11
   10e2a:	b7b5                	j	10d96 <_vfprintf_r+0xa0e>
   10e2c:	06600b13          	li	s6,102
   10e30:	4d05                	li	s10,1
   10e32:	bff1                	j	10e0e <_vfprintf_r+0xa86>
   10e34:	2701                	sext.w	a4,a4
   10e36:	03b75063          	ble	s11,a4,10e56 <_vfprintf_r+0xace>
   10e3a:	6782                	ld	a5,0(sp)
   10e3c:	40ed8dbb          	subw	s11,s11,a4
   10e40:	0017c703          	lbu	a4,1(a5)
   10e44:	c315                	beqz	a4,10e68 <_vfprintf_r+0xae0>
   10e46:	0785                	addi	a5,a5,1
   10e48:	2c85                	addiw	s9,s9,1
   10e4a:	e03e                	sd	a5,0(sp)
   10e4c:	6782                	ld	a5,0(sp)
   10e4e:	0007c703          	lbu	a4,0(a5)
   10e52:	fed711e3          	bne	a4,a3,10e34 <_vfprintf_r+0xaac>
   10e56:	47a2                	lw	a5,8(sp)
   10e58:	00fc873b          	addw	a4,s9,a5
   10e5c:	47a6                	lw	a5,72(sp)
   10e5e:	02f7073b          	mulw	a4,a4,a5
   10e62:	01a70d3b          	addw	s10,a4,s10
   10e66:	b581                	j	10ca6 <_vfprintf_r+0x91e>
   10e68:	47a2                	lw	a5,8(sp)
   10e6a:	2785                	addiw	a5,a5,1
   10e6c:	e43e                	sd	a5,8(sp)
   10e6e:	bff9                	j	10e4c <_vfprintf_r+0xac4>
   10e70:	008c0713          	addi	a4,s8,8
   10e74:	fc3a                	sd	a4,56(sp)
   10e76:	02047713          	andi	a4,s0,32
   10e7a:	000c3783          	ld	a5,0(s8)
   10e7e:	c719                	beqz	a4,10e8c <_vfprintf_r+0xb04>
   10e80:	7742                	ld	a4,48(sp)
   10e82:	e398                	sd	a4,0(a5)
   10e84:	7c62                	ld	s8,56(sp)
   10e86:	64e2                	ld	s1,24(sp)
   10e88:	e2eff06f          	j	104b6 <_vfprintf_r+0x12e>
   10e8c:	01047713          	andi	a4,s0,16
   10e90:	fb65                	bnez	a4,10e80 <_vfprintf_r+0xaf8>
   10e92:	04047713          	andi	a4,s0,64
   10e96:	c711                	beqz	a4,10ea2 <_vfprintf_r+0xb1a>
   10e98:	03015703          	lhu	a4,48(sp)
   10e9c:	00e79023          	sh	a4,0(a5)
   10ea0:	b7d5                	j	10e84 <_vfprintf_r+0xafc>
   10ea2:	20047413          	andi	s0,s0,512
   10ea6:	c411                	beqz	s0,10eb2 <_vfprintf_r+0xb2a>
   10ea8:	03014703          	lbu	a4,48(sp)
   10eac:	00e78023          	sb	a4,0(a5)
   10eb0:	bfd1                	j	10e84 <_vfprintf_r+0xafc>
   10eb2:	5742                	lw	a4,48(sp)
   10eb4:	c398                	sw	a4,0(a5)
   10eb6:	b7f9                	j	10e84 <_vfprintf_r+0xafc>
   10eb8:	01046413          	ori	s0,s0,16
   10ebc:	2401                	sext.w	s0,s0
   10ebe:	008c0793          	addi	a5,s8,8
   10ec2:	fc3e                	sd	a5,56(sp)
   10ec4:	02047793          	andi	a5,s0,32
   10ec8:	cb85                	beqz	a5,10ef8 <_vfprintf_r+0xb70>
   10eca:	000c3c03          	ld	s8,0(s8)
   10ece:	bff47413          	andi	s0,s0,-1025
   10ed2:	2401                	sext.w	s0,s0
   10ed4:	4781                	li	a5,0
   10ed6:	0c0107a3          	sb	zero,207(sp)
   10eda:	577d                	li	a4,-1
   10edc:	12ed0c63          	beq	s10,a4,11014 <_vfprintf_r+0xc8c>
   10ee0:	8722                	mv	a4,s0
   10ee2:	f7f47413          	andi	s0,s0,-129
   10ee6:	2401                	sext.w	s0,s0
   10ee8:	120c1663          	bnez	s8,11014 <_vfprintf_r+0xc8c>
   10eec:	200d0463          	beqz	s10,110f4 <_vfprintf_r+0xd6c>
   10ef0:	4705                	li	a4,1
   10ef2:	12e79463          	bne	a5,a4,1101a <_vfprintf_r+0xc92>
   10ef6:	b439                	j	10904 <_vfprintf_r+0x57c>
   10ef8:	01047793          	andi	a5,s0,16
   10efc:	f7f9                	bnez	a5,10eca <_vfprintf_r+0xb42>
   10efe:	04047793          	andi	a5,s0,64
   10f02:	000c2c03          	lw	s8,0(s8)
   10f06:	c789                	beqz	a5,10f10 <_vfprintf_r+0xb88>
   10f08:	1c42                	slli	s8,s8,0x30
   10f0a:	030c5c13          	srli	s8,s8,0x30
   10f0e:	b7c1                	j	10ece <_vfprintf_r+0xb46>
   10f10:	20047793          	andi	a5,s0,512
   10f14:	c781                	beqz	a5,10f1c <_vfprintf_r+0xb94>
   10f16:	0ffc7c13          	andi	s8,s8,255
   10f1a:	bf55                	j	10ece <_vfprintf_r+0xb46>
   10f1c:	1c02                	slli	s8,s8,0x20
   10f1e:	020c5c13          	srli	s8,s8,0x20
   10f22:	b775                	j	10ece <_vfprintf_r+0xb46>
   10f24:	008c0793          	addi	a5,s8,8
   10f28:	fc3e                	sd	a5,56(sp)
   10f2a:	77e1                	lui	a5,0xffff8
   10f2c:	8307c793          	xori	a5,a5,-2000
   10f30:	0cf11823          	sh	a5,208(sp)
   10f34:	0001a7b7          	lui	a5,0x1a
   10f38:	e4078793          	addi	a5,a5,-448 # 19e40 <zeroes.4413+0x60>
   10f3c:	00246413          	ori	s0,s0,2
   10f40:	f4be                	sd	a5,104(sp)
   10f42:	000c3c03          	ld	s8,0(s8)
   10f46:	2401                	sext.w	s0,s0
   10f48:	4789                	li	a5,2
   10f4a:	07800b13          	li	s6,120
   10f4e:	b761                	j	10ed6 <_vfprintf_r+0xb4e>
   10f50:	008c0793          	addi	a5,s8,8
   10f54:	fc3e                	sd	a5,56(sp)
   10f56:	0c0107a3          	sb	zero,207(sp)
   10f5a:	57fd                	li	a5,-1
   10f5c:	000c3483          	ld	s1,0(s8)
   10f60:	00fd0e63          	beq	s10,a5,10f7c <_vfprintf_r+0xbf4>
   10f64:	866a                	mv	a2,s10
   10f66:	4581                	li	a1,0
   10f68:	8526                	mv	a0,s1
   10f6a:	10c030ef          	jal	ra,14076 <memchr>
   10f6e:	8c2a                	mv	s8,a0
   10f70:	a20502e3          	beqz	a0,10994 <_vfprintf_r+0x60c>
   10f74:	40950d3b          	subw	s10,a0,s1
   10f78:	4c01                	li	s8,0
   10f7a:	bc29                	j	10994 <_vfprintf_r+0x60c>
   10f7c:	8526                	mv	a0,s1
   10f7e:	61b030ef          	jal	ra,14d98 <strlen>
   10f82:	00050d1b          	sext.w	s10,a0
   10f86:	bfcd                	j	10f78 <_vfprintf_r+0xbf0>
   10f88:	01046413          	ori	s0,s0,16
   10f8c:	2401                	sext.w	s0,s0
   10f8e:	008c0793          	addi	a5,s8,8
   10f92:	fc3e                	sd	a5,56(sp)
   10f94:	02047793          	andi	a5,s0,32
   10f98:	c789                	beqz	a5,10fa2 <_vfprintf_r+0xc1a>
   10f9a:	000c3c03          	ld	s8,0(s8)
   10f9e:	4785                	li	a5,1
   10fa0:	bf1d                	j	10ed6 <_vfprintf_r+0xb4e>
   10fa2:	01047793          	andi	a5,s0,16
   10fa6:	fbf5                	bnez	a5,10f9a <_vfprintf_r+0xc12>
   10fa8:	04047793          	andi	a5,s0,64
   10fac:	000c2c03          	lw	s8,0(s8)
   10fb0:	c789                	beqz	a5,10fba <_vfprintf_r+0xc32>
   10fb2:	1c42                	slli	s8,s8,0x30
   10fb4:	030c5c13          	srli	s8,s8,0x30
   10fb8:	b7dd                	j	10f9e <_vfprintf_r+0xc16>
   10fba:	20047793          	andi	a5,s0,512
   10fbe:	c781                	beqz	a5,10fc6 <_vfprintf_r+0xc3e>
   10fc0:	0ffc7c13          	andi	s8,s8,255
   10fc4:	bfe9                	j	10f9e <_vfprintf_r+0xc16>
   10fc6:	1c02                	slli	s8,s8,0x20
   10fc8:	020c5c13          	srli	s8,s8,0x20
   10fcc:	bfc9                	j	10f9e <_vfprintf_r+0xc16>
   10fce:	0001a7b7          	lui	a5,0x1a
   10fd2:	e4078793          	addi	a5,a5,-448 # 19e40 <zeroes.4413+0x60>
   10fd6:	d84ff06f          	j	1055a <_vfprintf_r+0x1d2>
   10fda:	01047793          	andi	a5,s0,16
   10fde:	d8079663          	bnez	a5,1056a <_vfprintf_r+0x1e2>
   10fe2:	04047793          	andi	a5,s0,64
   10fe6:	000c2c03          	lw	s8,0(s8)
   10fea:	c791                	beqz	a5,10ff6 <_vfprintf_r+0xc6e>
   10fec:	1c42                	slli	s8,s8,0x30
   10fee:	030c5c13          	srli	s8,s8,0x30
   10ff2:	d7cff06f          	j	1056e <_vfprintf_r+0x1e6>
   10ff6:	20047793          	andi	a5,s0,512
   10ffa:	c789                	beqz	a5,11004 <_vfprintf_r+0xc7c>
   10ffc:	0ffc7c13          	andi	s8,s8,255
   11000:	d6eff06f          	j	1056e <_vfprintf_r+0x1e6>
   11004:	1c02                	slli	s8,s8,0x20
   11006:	020c5c13          	srli	s8,s8,0x20
   1100a:	d64ff06f          	j	1056e <_vfprintf_r+0x1e6>
   1100e:	8722                	mv	a4,s0
   11010:	4785                	li	a5,1
   11012:	bdc1                	j	10ee2 <_vfprintf_r+0xb5a>
   11014:	4705                	li	a4,1
   11016:	8ee784e3          	beq	a5,a4,108fe <_vfprintf_r+0x576>
   1101a:	4709                	li	a4,2
   1101c:	0ae78d63          	beq	a5,a4,110d6 <_vfprintf_r+0xd4e>
   11020:	1afc                	addi	a5,sp,380
   11022:	007c7713          	andi	a4,s8,7
   11026:	03070713          	addi	a4,a4,48
   1102a:	fee78fa3          	sb	a4,-1(a5)
   1102e:	003c5c13          	srli	s8,s8,0x3
   11032:	fff78493          	addi	s1,a5,-1
   11036:	020c1863          	bnez	s8,11066 <_vfprintf_r+0xcde>
   1103a:	00147693          	andi	a3,s0,1
   1103e:	ca89                	beqz	a3,11050 <_vfprintf_r+0xcc8>
   11040:	03000693          	li	a3,48
   11044:	00d70663          	beq	a4,a3,11050 <_vfprintf_r+0xcc8>
   11048:	fed48fa3          	sb	a3,-1(s1)
   1104c:	ffe78493          	addi	s1,a5,-2
   11050:	17c10e13          	addi	t3,sp,380
   11054:	876a                	mv	a4,s10
   11056:	4c01                	li	s8,0
   11058:	409e0d3b          	subw	s10,t3,s1
   1105c:	e402                	sd	zero,8(sp)
   1105e:	4c81                	li	s9,0
   11060:	4d81                	li	s11,0
   11062:	e74ff06f          	j	106d6 <_vfprintf_r+0x34e>
   11066:	87a6                	mv	a5,s1
   11068:	bf6d                	j	11022 <_vfprintf_r+0xc9a>
   1106a:	40047c93          	andi	s9,s0,1024
   1106e:	4a01                	li	s4,0
   11070:	1afc                	addi	a5,sp,380
   11072:	4da9                	li	s11,10
   11074:	2c81                	sext.w	s9,s9
   11076:	0ff00693          	li	a3,255
   1107a:	4825                	li	a6,9
   1107c:	03bc7733          	remu	a4,s8,s11
   11080:	fff78493          	addi	s1,a5,-1
   11084:	2a05                	addiw	s4,s4,1
   11086:	0307071b          	addiw	a4,a4,48
   1108a:	fee78fa3          	sb	a4,-1(a5)
   1108e:	020c8e63          	beqz	s9,110ca <_vfprintf_r+0xd42>
   11092:	6782                	ld	a5,0(sp)
   11094:	0007c783          	lbu	a5,0(a5)
   11098:	02fa1963          	bne	s4,a5,110ca <_vfprintf_r+0xd42>
   1109c:	02d78763          	beq	a5,a3,110ca <_vfprintf_r+0xd42>
   110a0:	03887563          	bleu	s8,a6,110ca <_vfprintf_r+0xd42>
   110a4:	67a6                	ld	a5,72(sp)
   110a6:	65e6                	ld	a1,88(sp)
   110a8:	e0c2                	sd	a6,64(sp)
   110aa:	8c9d                	sub	s1,s1,a5
   110ac:	863e                	mv	a2,a5
   110ae:	8526                	mv	a0,s1
   110b0:	e436                	sd	a3,8(sp)
   110b2:	4f9030ef          	jal	ra,14daa <strncpy>
   110b6:	6782                	ld	a5,0(sp)
   110b8:	4a01                	li	s4,0
   110ba:	66a2                	ld	a3,8(sp)
   110bc:	0017c783          	lbu	a5,1(a5)
   110c0:	6806                	ld	a6,64(sp)
   110c2:	c781                	beqz	a5,110ca <_vfprintf_r+0xd42>
   110c4:	6782                	ld	a5,0(sp)
   110c6:	0785                	addi	a5,a5,1
   110c8:	e03e                	sd	a5,0(sp)
   110ca:	03bc5c33          	divu	s8,s8,s11
   110ce:	f80c01e3          	beqz	s8,11050 <_vfprintf_r+0xcc8>
   110d2:	87a6                	mv	a5,s1
   110d4:	b765                	j	1107c <_vfprintf_r+0xcf4>
   110d6:	1ae4                	addi	s1,sp,380
   110d8:	7726                	ld	a4,104(sp)
   110da:	00fc7793          	andi	a5,s8,15
   110de:	14fd                	addi	s1,s1,-1
   110e0:	97ba                	add	a5,a5,a4
   110e2:	0007c783          	lbu	a5,0(a5)
   110e6:	004c5c13          	srli	s8,s8,0x4
   110ea:	00f48023          	sb	a5,0(s1)
   110ee:	fe0c15e3          	bnez	s8,110d8 <_vfprintf_r+0xd50>
   110f2:	bfb9                	j	11050 <_vfprintf_r+0xcc8>
   110f4:	1ae4                	addi	s1,sp,380
   110f6:	ffa9                	bnez	a5,11050 <_vfprintf_r+0xcc8>
   110f8:	8b05                	andi	a4,a4,1
   110fa:	db39                	beqz	a4,11050 <_vfprintf_r+0xcc8>
   110fc:	03000793          	li	a5,48
   11100:	16f10da3          	sb	a5,379(sp)
   11104:	809ff06f          	j	1090c <_vfprintf_r+0x584>
   11108:	000b09e3          	beqz	s6,1191a <_vfprintf_r+0x1592>
   1110c:	11610c23          	sb	s6,280(sp)
   11110:	0c0107a3          	sb	zero,207(sp)
   11114:	fc62                	sd	s8,56(sp)
   11116:	db2ff06f          	j	106c8 <_vfprintf_r+0x340>
   1111a:	0641                	addi	a2,a2,16
   1111c:	011bb423          	sd	a7,8(s7)
   11120:	ea32                	sd	a2,272(sp)
   11122:	10b12423          	sw	a1,264(sp)
   11126:	02aed463          	ble	a0,t4,1114e <_vfprintf_r+0xdc6>
   1112a:	0210                	addi	a2,sp,256
   1112c:	85ca                	mv	a1,s2
   1112e:	854e                	mv	a0,s3
   11130:	f576                	sd	t4,168(sp)
   11132:	ed42                	sd	a6,152(sp)
   11134:	e946                	sd	a7,144(sp)
   11136:	e53a                	sd	a4,136(sp)
   11138:	e136                	sd	a3,128(sp)
   1113a:	20a050ef          	jal	ra,16344 <__sprint_r>
   1113e:	78051f63          	bnez	a0,118dc <_vfprintf_r+0x1554>
   11142:	7eaa                	ld	t4,168(sp)
   11144:	686a                	ld	a6,152(sp)
   11146:	68ca                	ld	a7,144(sp)
   11148:	672a                	ld	a4,136(sp)
   1114a:	668a                	ld	a3,128(sp)
   1114c:	8f56                	mv	t5,s5
   1114e:	36c1                	addiw	a3,a3,-16
   11150:	8bfa                	mv	s7,t5
   11152:	dceff06f          	j	10720 <_vfprintf_r+0x398>
   11156:	0641                	addi	a2,a2,16
   11158:	010bb423          	sd	a6,8(s7)
   1115c:	ea32                	sd	a2,272(sp)
   1115e:	10b12423          	sw	a1,264(sp)
   11162:	02a8d263          	ble	a0,a7,11186 <_vfprintf_r+0xdfe>
   11166:	0210                	addi	a2,sp,256
   11168:	85ca                	mv	a1,s2
   1116a:	854e                	mv	a0,s3
   1116c:	e546                	sd	a7,136(sp)
   1116e:	e142                	sd	a6,128(sp)
   11170:	fcba                	sd	a4,120(sp)
   11172:	f8b6                	sd	a3,112(sp)
   11174:	1d0050ef          	jal	ra,16344 <__sprint_r>
   11178:	76051263          	bnez	a0,118dc <_vfprintf_r+0x1554>
   1117c:	68aa                	ld	a7,136(sp)
   1117e:	680a                	ld	a6,128(sp)
   11180:	7766                	ld	a4,120(sp)
   11182:	76c6                	ld	a3,112(sp)
   11184:	8ed6                	mv	t4,s5
   11186:	36c1                	addiw	a3,a3,-16
   11188:	8bf6                	mv	s7,t4
   1118a:	e76ff06f          	j	10800 <_vfprintf_r+0x478>
   1118e:	06c1                	addi	a3,a3,16
   11190:	010bb423          	sd	a6,8(s7)
   11194:	ea36                	sd	a3,272(sp)
   11196:	10c12423          	sw	a2,264(sp)
   1119a:	02b8d063          	ble	a1,a7,111ba <_vfprintf_r+0xe32>
   1119e:	0210                	addi	a2,sp,256
   111a0:	85ca                	mv	a1,s2
   111a2:	854e                	mv	a0,s3
   111a4:	e146                	sd	a7,128(sp)
   111a6:	fcc2                	sd	a6,120(sp)
   111a8:	f8ba                	sd	a4,112(sp)
   111aa:	19a050ef          	jal	ra,16344 <__sprint_r>
   111ae:	72051763          	bnez	a0,118dc <_vfprintf_r+0x1554>
   111b2:	688a                	ld	a7,128(sp)
   111b4:	7866                	ld	a6,120(sp)
   111b6:	7746                	ld	a4,112(sp)
   111b8:	8556                	mv	a0,s5
   111ba:	3741                	addiw	a4,a4,-16
   111bc:	8baa                	mv	s7,a0
   111be:	e92ff06f          	j	10850 <_vfprintf_r+0x4c8>
   111c2:	06500693          	li	a3,101
   111c6:	5766d963          	ble	s6,a3,11738 <_vfprintf_r+0x13b0>
   111ca:	754e                	ld	a0,240(sp)
   111cc:	75ee                	ld	a1,248(sp)
   111ce:	4601                	li	a2,0
   111d0:	4681                	li	a3,0
   111d2:	f8ba                	sd	a4,112(sp)
   111d4:	554070ef          	jal	ra,18728 <__eqtf2>
   111d8:	7746                	ld	a4,112(sp)
   111da:	10051f63          	bnez	a0,112f8 <_vfprintf_r+0xf70>
   111de:	0001a7b7          	lui	a5,0x1a
   111e2:	e7078793          	addi	a5,a5,-400 # 19e70 <zeroes.4413+0x90>
   111e6:	00fbb023          	sd	a5,0(s7)
   111ea:	4785                	li	a5,1
   111ec:	00fbb423          	sd	a5,8(s7)
   111f0:	10812783          	lw	a5,264(sp)
   111f4:	0705                	addi	a4,a4,1
   111f6:	ea3a                	sd	a4,272(sp)
   111f8:	0017871b          	addiw	a4,a5,1
   111fc:	10e12423          	sw	a4,264(sp)
   11200:	479d                	li	a5,7
   11202:	0bc1                	addi	s7,s7,16
   11204:	00e7da63          	ble	a4,a5,11218 <_vfprintf_r+0xe90>
   11208:	0210                	addi	a2,sp,256
   1120a:	85ca                	mv	a1,s2
   1120c:	854e                	mv	a0,s3
   1120e:	136050ef          	jal	ra,16344 <__sprint_r>
   11212:	6c051563          	bnez	a0,118dc <_vfprintf_r+0x1554>
   11216:	8bd6                	mv	s7,s5
   11218:	47ee                	lw	a5,216(sp)
   1121a:	0147c563          	blt	a5,s4,11224 <_vfprintf_r+0xe9c>
   1121e:	00147793          	andi	a5,s0,1
   11222:	cbb5                	beqz	a5,11296 <_vfprintf_r+0xf0e>
   11224:	67c6                	ld	a5,80(sp)
   11226:	7702                	ld	a4,32(sp)
   11228:	0bc1                	addi	s7,s7,16
   1122a:	fefbb823          	sd	a5,-16(s7)
   1122e:	7782                	ld	a5,32(sp)
   11230:	fefbbc23          	sd	a5,-8(s7)
   11234:	67d2                	ld	a5,272(sp)
   11236:	97ba                	add	a5,a5,a4
   11238:	ea3e                	sd	a5,272(sp)
   1123a:	10812783          	lw	a5,264(sp)
   1123e:	0017871b          	addiw	a4,a5,1
   11242:	10e12423          	sw	a4,264(sp)
   11246:	479d                	li	a5,7
   11248:	00e7da63          	ble	a4,a5,1125c <_vfprintf_r+0xed4>
   1124c:	0210                	addi	a2,sp,256
   1124e:	85ca                	mv	a1,s2
   11250:	854e                	mv	a0,s3
   11252:	0f2050ef          	jal	ra,16344 <__sprint_r>
   11256:	68051363          	bnez	a0,118dc <_vfprintf_r+0x1554>
   1125a:	8bd6                	mv	s7,s5
   1125c:	fffa049b          	addiw	s1,s4,-1
   11260:	02905b63          	blez	s1,11296 <_vfprintf_r+0xf0e>
   11264:	4b41                	li	s6,16
   11266:	4c9d                	li	s9,7
   11268:	10812703          	lw	a4,264(sp)
   1126c:	67d2                	ld	a5,272(sp)
   1126e:	010b8613          	addi	a2,s7,16
   11272:	0017069b          	addiw	a3,a4,1
   11276:	8736                	mv	a4,a3
   11278:	049b4a63          	blt	s6,s1,112cc <_vfprintf_r+0xf44>
   1127c:	6742                	ld	a4,16(sp)
   1127e:	009bb423          	sd	s1,8(s7)
   11282:	94be                	add	s1,s1,a5
   11284:	00ebb023          	sd	a4,0(s7)
   11288:	ea26                	sd	s1,272(sp)
   1128a:	10d12423          	sw	a3,264(sp)
   1128e:	479d                	li	a5,7
   11290:	8bb2                	mv	s7,a2
   11292:	e2d7c563          	blt	a5,a3,108bc <_vfprintf_r+0x534>
   11296:	8811                	andi	s0,s0,4
   11298:	5e041d63          	bnez	s0,11892 <_vfprintf_r+0x150a>
   1129c:	7722                	ld	a4,40(sp)
   1129e:	6686                	ld	a3,64(sp)
   112a0:	57a2                	lw	a5,40(sp)
   112a2:	00d75363          	ble	a3,a4,112a8 <_vfprintf_r+0xf20>
   112a6:	4786                	lw	a5,64(sp)
   112a8:	5742                	lw	a4,48(sp)
   112aa:	9fb9                	addw	a5,a5,a4
   112ac:	f83e                	sd	a5,48(sp)
   112ae:	67d2                	ld	a5,272(sp)
   112b0:	cb81                	beqz	a5,112c0 <_vfprintf_r+0xf38>
   112b2:	0210                	addi	a2,sp,256
   112b4:	85ca                	mv	a1,s2
   112b6:	854e                	mv	a0,s3
   112b8:	08c050ef          	jal	ra,16344 <__sprint_r>
   112bc:	62051063          	bnez	a0,118dc <_vfprintf_r+0x1554>
   112c0:	10012423          	sw	zero,264(sp)
   112c4:	640c1663          	bnez	s8,11910 <_vfprintf_r+0x1588>
   112c8:	8bd6                	mv	s7,s5
   112ca:	be6d                	j	10e84 <_vfprintf_r+0xafc>
   112cc:	65c2                	ld	a1,16(sp)
   112ce:	07c1                	addi	a5,a5,16
   112d0:	016bb423          	sd	s6,8(s7)
   112d4:	00bbb023          	sd	a1,0(s7)
   112d8:	ea3e                	sd	a5,272(sp)
   112da:	10e12423          	sw	a4,264(sp)
   112de:	00dcda63          	ble	a3,s9,112f2 <_vfprintf_r+0xf6a>
   112e2:	0210                	addi	a2,sp,256
   112e4:	85ca                	mv	a1,s2
   112e6:	854e                	mv	a0,s3
   112e8:	05c050ef          	jal	ra,16344 <__sprint_r>
   112ec:	5e051863          	bnez	a0,118dc <_vfprintf_r+0x1554>
   112f0:	8656                	mv	a2,s5
   112f2:	34c1                	addiw	s1,s1,-16
   112f4:	8bb2                	mv	s7,a2
   112f6:	bf8d                	j	11268 <_vfprintf_r+0xee0>
   112f8:	46ee                	lw	a3,216(sp)
   112fa:	12d04063          	bgtz	a3,1141a <_vfprintf_r+0x1092>
   112fe:	0001a7b7          	lui	a5,0x1a
   11302:	e7078793          	addi	a5,a5,-400 # 19e70 <zeroes.4413+0x90>
   11306:	00fbb023          	sd	a5,0(s7)
   1130a:	4785                	li	a5,1
   1130c:	00fbb423          	sd	a5,8(s7)
   11310:	10812783          	lw	a5,264(sp)
   11314:	0705                	addi	a4,a4,1
   11316:	ea3a                	sd	a4,272(sp)
   11318:	0017871b          	addiw	a4,a5,1
   1131c:	10e12423          	sw	a4,264(sp)
   11320:	479d                	li	a5,7
   11322:	0bc1                	addi	s7,s7,16
   11324:	00e7da63          	ble	a4,a5,11338 <_vfprintf_r+0xfb0>
   11328:	0210                	addi	a2,sp,256
   1132a:	85ca                	mv	a1,s2
   1132c:	854e                	mv	a0,s3
   1132e:	016050ef          	jal	ra,16344 <__sprint_r>
   11332:	5a051563          	bnez	a0,118dc <_vfprintf_r+0x1554>
   11336:	8bd6                	mv	s7,s5
   11338:	47ee                	lw	a5,216(sp)
   1133a:	e791                	bnez	a5,11346 <_vfprintf_r+0xfbe>
   1133c:	000a1563          	bnez	s4,11346 <_vfprintf_r+0xfbe>
   11340:	00147793          	andi	a5,s0,1
   11344:	dba9                	beqz	a5,11296 <_vfprintf_r+0xf0e>
   11346:	67c6                	ld	a5,80(sp)
   11348:	7702                	ld	a4,32(sp)
   1134a:	010b8313          	addi	t1,s7,16
   1134e:	00fbb023          	sd	a5,0(s7)
   11352:	7782                	ld	a5,32(sp)
   11354:	00fbb423          	sd	a5,8(s7)
   11358:	67d2                	ld	a5,272(sp)
   1135a:	97ba                	add	a5,a5,a4
   1135c:	ea3e                	sd	a5,272(sp)
   1135e:	10812783          	lw	a5,264(sp)
   11362:	0017871b          	addiw	a4,a5,1
   11366:	10e12423          	sw	a4,264(sp)
   1136a:	479d                	li	a5,7
   1136c:	00e7da63          	ble	a4,a5,11380 <_vfprintf_r+0xff8>
   11370:	0210                	addi	a2,sp,256
   11372:	85ca                	mv	a1,s2
   11374:	854e                	mv	a0,s3
   11376:	7cf040ef          	jal	ra,16344 <__sprint_r>
   1137a:	56051163          	bnez	a0,118dc <_vfprintf_r+0x1554>
   1137e:	8356                	mv	t1,s5
   11380:	4b6e                	lw	s6,216(sp)
   11382:	040b5363          	bgez	s6,113c8 <_vfprintf_r+0x1040>
   11386:	41600b3b          	negw	s6,s6
   1138a:	879a                	mv	a5,t1
   1138c:	4cc1                	li	s9,16
   1138e:	4d9d                	li	s11,7
   11390:	10812683          	lw	a3,264(sp)
   11394:	6752                	ld	a4,272(sp)
   11396:	0341                	addi	t1,t1,16
   11398:	0016861b          	addiw	a2,a3,1
   1139c:	86b2                	mv	a3,a2
   1139e:	056cc963          	blt	s9,s6,113f0 <_vfprintf_r+0x1068>
   113a2:	66c2                	ld	a3,16(sp)
   113a4:	0167b423          	sd	s6,8(a5)
   113a8:	9b3a                	add	s6,s6,a4
   113aa:	e394                	sd	a3,0(a5)
   113ac:	ea5a                	sd	s6,272(sp)
   113ae:	10c12423          	sw	a2,264(sp)
   113b2:	479d                	li	a5,7
   113b4:	00c7da63          	ble	a2,a5,113c8 <_vfprintf_r+0x1040>
   113b8:	0210                	addi	a2,sp,256
   113ba:	85ca                	mv	a1,s2
   113bc:	854e                	mv	a0,s3
   113be:	787040ef          	jal	ra,16344 <__sprint_r>
   113c2:	50051d63          	bnez	a0,118dc <_vfprintf_r+0x1554>
   113c6:	8356                	mv	t1,s5
   113c8:	67d2                	ld	a5,272(sp)
   113ca:	00933023          	sd	s1,0(t1) # 0 <_start-0x100b0>
   113ce:	01433423          	sd	s4,8(t1)
   113d2:	97d2                	add	a5,a5,s4
   113d4:	ea3e                	sd	a5,272(sp)
   113d6:	10812783          	lw	a5,264(sp)
   113da:	01030b93          	addi	s7,t1,16
   113de:	0017871b          	addiw	a4,a5,1
   113e2:	10e12423          	sw	a4,264(sp)
   113e6:	479d                	li	a5,7
   113e8:	eae7d7e3          	ble	a4,a5,11296 <_vfprintf_r+0xf0e>
   113ec:	cd0ff06f          	j	108bc <_vfprintf_r+0x534>
   113f0:	65c2                	ld	a1,16(sp)
   113f2:	0741                	addi	a4,a4,16
   113f4:	0197b423          	sd	s9,8(a5)
   113f8:	e38c                	sd	a1,0(a5)
   113fa:	ea3a                	sd	a4,272(sp)
   113fc:	10d12423          	sw	a3,264(sp)
   11400:	00cdda63          	ble	a2,s11,11414 <_vfprintf_r+0x108c>
   11404:	0210                	addi	a2,sp,256
   11406:	85ca                	mv	a1,s2
   11408:	854e                	mv	a0,s3
   1140a:	73b040ef          	jal	ra,16344 <__sprint_r>
   1140e:	4c051763          	bnez	a0,118dc <_vfprintf_r+0x1554>
   11412:	8356                	mv	t1,s5
   11414:	3b41                	addiw	s6,s6,-16
   11416:	879a                	mv	a5,t1
   11418:	bfa5                	j	11390 <_vfprintf_r+0x1008>
   1141a:	86ee                	mv	a3,s11
   1141c:	01ba5363          	ble	s11,s4,11422 <_vfprintf_r+0x109a>
   11420:	86d2                	mv	a3,s4
   11422:	00068d1b          	sext.w	s10,a3
   11426:	03a05a63          	blez	s10,1145a <_vfprintf_r+0x10d2>
   1142a:	976a                	add	a4,a4,s10
   1142c:	ea3a                	sd	a4,272(sp)
   1142e:	10812703          	lw	a4,264(sp)
   11432:	009bb023          	sd	s1,0(s7)
   11436:	01abb423          	sd	s10,8(s7)
   1143a:	0017061b          	addiw	a2,a4,1
   1143e:	10c12423          	sw	a2,264(sp)
   11442:	471d                	li	a4,7
   11444:	0bc1                	addi	s7,s7,16
   11446:	00c75a63          	ble	a2,a4,1145a <_vfprintf_r+0x10d2>
   1144a:	0210                	addi	a2,sp,256
   1144c:	85ca                	mv	a1,s2
   1144e:	854e                	mv	a0,s3
   11450:	6f5040ef          	jal	ra,16344 <__sprint_r>
   11454:	48051463          	bnez	a0,118dc <_vfprintf_r+0x1554>
   11458:	8bd6                	mv	s7,s5
   1145a:	8b6a                	mv	s6,s10
   1145c:	000d5363          	bgez	s10,11462 <_vfprintf_r+0x10da>
   11460:	4b01                	li	s6,0
   11462:	416d8b3b          	subw	s6,s11,s6
   11466:	05605363          	blez	s6,114ac <_vfprintf_r+0x1124>
   1146a:	4d41                	li	s10,16
   1146c:	489d                	li	a7,7
   1146e:	10812683          	lw	a3,264(sp)
   11472:	67c2                	ld	a5,16(sp)
   11474:	6752                	ld	a4,272(sp)
   11476:	0016861b          	addiw	a2,a3,1
   1147a:	00fbb023          	sd	a5,0(s7)
   1147e:	86b2                	mv	a3,a2
   11480:	010b8593          	addi	a1,s7,16
   11484:	136d4c63          	blt	s10,s6,115bc <_vfprintf_r+0x1234>
   11488:	016bb423          	sd	s6,8(s7)
   1148c:	9b3a                	add	s6,s6,a4
   1148e:	ea5a                	sd	s6,272(sp)
   11490:	10c12423          	sw	a2,264(sp)
   11494:	471d                	li	a4,7
   11496:	8bae                	mv	s7,a1
   11498:	00c75a63          	ble	a2,a4,114ac <_vfprintf_r+0x1124>
   1149c:	0210                	addi	a2,sp,256
   1149e:	85ca                	mv	a1,s2
   114a0:	854e                	mv	a0,s3
   114a2:	6a3040ef          	jal	ra,16344 <__sprint_r>
   114a6:	42051b63          	bnez	a0,118dc <_vfprintf_r+0x1554>
   114aa:	8bd6                	mv	s7,s5
   114ac:	40047793          	andi	a5,s0,1024
   114b0:	01b48b33          	add	s6,s1,s11
   114b4:	cf99                	beqz	a5,114d2 <_vfprintf_r+0x114a>
   114b6:	014487b3          	add	a5,s1,s4
   114ba:	4d1d                	li	s10,7
   114bc:	8dbe                	mv	s11,a5
   114be:	67a2                	ld	a5,8(sp)
   114c0:	120c9363          	bnez	s9,115e6 <_vfprintf_r+0x125e>
   114c4:	12079263          	bnez	a5,115e8 <_vfprintf_r+0x1260>
   114c8:	014487b3          	add	a5,s1,s4
   114cc:	0167f363          	bleu	s6,a5,114d2 <_vfprintf_r+0x114a>
   114d0:	8b3e                	mv	s6,a5
   114d2:	47ee                	lw	a5,216(sp)
   114d4:	0147c563          	blt	a5,s4,114de <_vfprintf_r+0x1156>
   114d8:	00147793          	andi	a5,s0,1
   114dc:	cf8d                	beqz	a5,11516 <_vfprintf_r+0x118e>
   114de:	67c6                	ld	a5,80(sp)
   114e0:	7702                	ld	a4,32(sp)
   114e2:	0bc1                	addi	s7,s7,16
   114e4:	fefbb823          	sd	a5,-16(s7)
   114e8:	7782                	ld	a5,32(sp)
   114ea:	fefbbc23          	sd	a5,-8(s7)
   114ee:	67d2                	ld	a5,272(sp)
   114f0:	97ba                	add	a5,a5,a4
   114f2:	ea3e                	sd	a5,272(sp)
   114f4:	10812783          	lw	a5,264(sp)
   114f8:	0017871b          	addiw	a4,a5,1
   114fc:	10e12423          	sw	a4,264(sp)
   11500:	479d                	li	a5,7
   11502:	00e7da63          	ble	a4,a5,11516 <_vfprintf_r+0x118e>
   11506:	0210                	addi	a2,sp,256
   11508:	85ca                	mv	a1,s2
   1150a:	854e                	mv	a0,s3
   1150c:	639040ef          	jal	ra,16344 <__sprint_r>
   11510:	3c051663          	bnez	a0,118dc <_vfprintf_r+0x1554>
   11514:	8bd6                	mv	s7,s5
   11516:	4cee                	lw	s9,216(sp)
   11518:	94d2                	add	s1,s1,s4
   1151a:	416484bb          	subw	s1,s1,s6
   1151e:	419a07bb          	subw	a5,s4,s9
   11522:	8cbe                	mv	s9,a5
   11524:	00f4d463          	ble	a5,s1,1152c <_vfprintf_r+0x11a4>
   11528:	00048c9b          	sext.w	s9,s1
   1152c:	03905b63          	blez	s9,11562 <_vfprintf_r+0x11da>
   11530:	67d2                	ld	a5,272(sp)
   11532:	016bb023          	sd	s6,0(s7)
   11536:	019bb423          	sd	s9,8(s7)
   1153a:	97e6                	add	a5,a5,s9
   1153c:	ea3e                	sd	a5,272(sp)
   1153e:	10812783          	lw	a5,264(sp)
   11542:	0bc1                	addi	s7,s7,16
   11544:	0017871b          	addiw	a4,a5,1
   11548:	10e12423          	sw	a4,264(sp)
   1154c:	479d                	li	a5,7
   1154e:	00e7da63          	ble	a4,a5,11562 <_vfprintf_r+0x11da>
   11552:	0210                	addi	a2,sp,256
   11554:	85ca                	mv	a1,s2
   11556:	854e                	mv	a0,s3
   11558:	5ed040ef          	jal	ra,16344 <__sprint_r>
   1155c:	38051063          	bnez	a0,118dc <_vfprintf_r+0x1554>
   11560:	8bd6                	mv	s7,s5
   11562:	87e6                	mv	a5,s9
   11564:	000cd363          	bgez	s9,1156a <_vfprintf_r+0x11e2>
   11568:	4781                	li	a5,0
   1156a:	44ee                	lw	s1,216(sp)
   1156c:	409a04bb          	subw	s1,s4,s1
   11570:	9c9d                	subw	s1,s1,a5
   11572:	d29052e3          	blez	s1,11296 <_vfprintf_r+0xf0e>
   11576:	4b41                	li	s6,16
   11578:	4c9d                	li	s9,7
   1157a:	10812703          	lw	a4,264(sp)
   1157e:	67d2                	ld	a5,272(sp)
   11580:	010b8613          	addi	a2,s7,16
   11584:	0017069b          	addiw	a3,a4,1
   11588:	8736                	mv	a4,a3
   1158a:	189b4163          	blt	s6,s1,1170c <_vfprintf_r+0x1384>
   1158e:	6742                	ld	a4,16(sp)
   11590:	009bb423          	sd	s1,8(s7)
   11594:	94be                	add	s1,s1,a5
   11596:	00ebb023          	sd	a4,0(s7)
   1159a:	ea26                	sd	s1,272(sp)
   1159c:	10d12423          	sw	a3,264(sp)
   115a0:	479d                	li	a5,7
   115a2:	8bb2                	mv	s7,a2
   115a4:	ced7d9e3          	ble	a3,a5,11296 <_vfprintf_r+0xf0e>
   115a8:	0210                	addi	a2,sp,256
   115aa:	85ca                	mv	a1,s2
   115ac:	854e                	mv	a0,s3
   115ae:	597040ef          	jal	ra,16344 <__sprint_r>
   115b2:	32051563          	bnez	a0,118dc <_vfprintf_r+0x1554>
   115b6:	18010b93          	addi	s7,sp,384
   115ba:	b9f1                	j	11296 <_vfprintf_r+0xf0e>
   115bc:	0741                	addi	a4,a4,16
   115be:	01abb423          	sd	s10,8(s7)
   115c2:	ea3a                	sd	a4,272(sp)
   115c4:	10d12423          	sw	a3,264(sp)
   115c8:	00c8dc63          	ble	a2,a7,115e0 <_vfprintf_r+0x1258>
   115cc:	0210                	addi	a2,sp,256
   115ce:	85ca                	mv	a1,s2
   115d0:	854e                	mv	a0,s3
   115d2:	f8c6                	sd	a7,112(sp)
   115d4:	571040ef          	jal	ra,16344 <__sprint_r>
   115d8:	30051263          	bnez	a0,118dc <_vfprintf_r+0x1554>
   115dc:	78c6                	ld	a7,112(sp)
   115de:	85d6                	mv	a1,s5
   115e0:	3b41                	addiw	s6,s6,-16
   115e2:	8bae                	mv	s7,a1
   115e4:	b569                	j	1146e <_vfprintf_r+0x10e6>
   115e6:	c7cd                	beqz	a5,11690 <_vfprintf_r+0x1308>
   115e8:	47a2                	lw	a5,8(sp)
   115ea:	37fd                	addiw	a5,a5,-1
   115ec:	e43e                	sd	a5,8(sp)
   115ee:	67e6                	ld	a5,88(sp)
   115f0:	6726                	ld	a4,72(sp)
   115f2:	0bc1                	addi	s7,s7,16
   115f4:	fefbb823          	sd	a5,-16(s7)
   115f8:	67a6                	ld	a5,72(sp)
   115fa:	fefbbc23          	sd	a5,-8(s7)
   115fe:	67d2                	ld	a5,272(sp)
   11600:	97ba                	add	a5,a5,a4
   11602:	ea3e                	sd	a5,272(sp)
   11604:	10812783          	lw	a5,264(sp)
   11608:	0017871b          	addiw	a4,a5,1
   1160c:	10e12423          	sw	a4,264(sp)
   11610:	00ed5a63          	ble	a4,s10,11624 <_vfprintf_r+0x129c>
   11614:	0210                	addi	a2,sp,256
   11616:	85ca                	mv	a1,s2
   11618:	854e                	mv	a0,s3
   1161a:	52b040ef          	jal	ra,16344 <__sprint_r>
   1161e:	2a051f63          	bnez	a0,118dc <_vfprintf_r+0x1554>
   11622:	8bd6                	mv	s7,s5
   11624:	6702                	ld	a4,0(sp)
   11626:	416d87bb          	subw	a5,s11,s6
   1162a:	00074703          	lbu	a4,0(a4)
   1162e:	00e7d463          	ble	a4,a5,11636 <_vfprintf_r+0x12ae>
   11632:	0007871b          	sext.w	a4,a5
   11636:	02e05d63          	blez	a4,11670 <_vfprintf_r+0x12e8>
   1163a:	67d2                	ld	a5,272(sp)
   1163c:	016bb023          	sd	s6,0(s7)
   11640:	00ebb423          	sd	a4,8(s7)
   11644:	97ba                	add	a5,a5,a4
   11646:	ea3e                	sd	a5,272(sp)
   11648:	10812783          	lw	a5,264(sp)
   1164c:	0bc1                	addi	s7,s7,16
   1164e:	0017869b          	addiw	a3,a5,1
   11652:	10d12423          	sw	a3,264(sp)
   11656:	00dd5d63          	ble	a3,s10,11670 <_vfprintf_r+0x12e8>
   1165a:	0210                	addi	a2,sp,256
   1165c:	85ca                	mv	a1,s2
   1165e:	854e                	mv	a0,s3
   11660:	f8ba                	sd	a4,112(sp)
   11662:	4e3040ef          	jal	ra,16344 <__sprint_r>
   11666:	26051b63          	bnez	a0,118dc <_vfprintf_r+0x1554>
   1166a:	7746                	ld	a4,112(sp)
   1166c:	18010b93          	addi	s7,sp,384
   11670:	86ba                	mv	a3,a4
   11672:	00075363          	bgez	a4,11678 <_vfprintf_r+0x12f0>
   11676:	4681                	li	a3,0
   11678:	6782                	ld	a5,0(sp)
   1167a:	4841                	li	a6,16
   1167c:	0007c783          	lbu	a5,0(a5)
   11680:	9f95                	subw	a5,a5,a3
   11682:	04f04563          	bgtz	a5,116cc <_vfprintf_r+0x1344>
   11686:	6782                	ld	a5,0(sp)
   11688:	0007c783          	lbu	a5,0(a5)
   1168c:	9b3e                	add	s6,s6,a5
   1168e:	bd05                	j	114be <_vfprintf_r+0x1136>
   11690:	6782                	ld	a5,0(sp)
   11692:	3cfd                	addiw	s9,s9,-1
   11694:	17fd                	addi	a5,a5,-1
   11696:	e03e                	sd	a5,0(sp)
   11698:	bf99                	j	115ee <_vfprintf_r+0x1266>
   1169a:	6542                	ld	a0,16(sp)
   1169c:	0741                	addi	a4,a4,16
   1169e:	010bb423          	sd	a6,8(s7)
   116a2:	00abb023          	sd	a0,0(s7)
   116a6:	ea3a                	sd	a4,272(sp)
   116a8:	10d12423          	sw	a3,264(sp)
   116ac:	00cd5e63          	ble	a2,s10,116c8 <_vfprintf_r+0x1340>
   116b0:	0210                	addi	a2,sp,256
   116b2:	85ca                	mv	a1,s2
   116b4:	854e                	mv	a0,s3
   116b6:	fcc2                	sd	a6,120(sp)
   116b8:	f8be                	sd	a5,112(sp)
   116ba:	48b040ef          	jal	ra,16344 <__sprint_r>
   116be:	20051f63          	bnez	a0,118dc <_vfprintf_r+0x1554>
   116c2:	7866                	ld	a6,120(sp)
   116c4:	77c6                	ld	a5,112(sp)
   116c6:	030c                	addi	a1,sp,384
   116c8:	37c1                	addiw	a5,a5,-16
   116ca:	8bae                	mv	s7,a1
   116cc:	10812683          	lw	a3,264(sp)
   116d0:	6752                	ld	a4,272(sp)
   116d2:	010b8593          	addi	a1,s7,16
   116d6:	0016861b          	addiw	a2,a3,1
   116da:	86b2                	mv	a3,a2
   116dc:	faf84fe3          	blt	a6,a5,1169a <_vfprintf_r+0x1312>
   116e0:	66c2                	ld	a3,16(sp)
   116e2:	00fbb423          	sd	a5,8(s7)
   116e6:	97ba                	add	a5,a5,a4
   116e8:	00dbb023          	sd	a3,0(s7)
   116ec:	ea3e                	sd	a5,272(sp)
   116ee:	10c12423          	sw	a2,264(sp)
   116f2:	8bae                	mv	s7,a1
   116f4:	f8cd59e3          	ble	a2,s10,11686 <_vfprintf_r+0x12fe>
   116f8:	0210                	addi	a2,sp,256
   116fa:	85ca                	mv	a1,s2
   116fc:	854e                	mv	a0,s3
   116fe:	447040ef          	jal	ra,16344 <__sprint_r>
   11702:	1c051d63          	bnez	a0,118dc <_vfprintf_r+0x1554>
   11706:	18010b93          	addi	s7,sp,384
   1170a:	bfb5                	j	11686 <_vfprintf_r+0x12fe>
   1170c:	65c2                	ld	a1,16(sp)
   1170e:	07c1                	addi	a5,a5,16
   11710:	016bb423          	sd	s6,8(s7)
   11714:	00bbb023          	sd	a1,0(s7)
   11718:	ea3e                	sd	a5,272(sp)
   1171a:	10e12423          	sw	a4,264(sp)
   1171e:	00dcda63          	ble	a3,s9,11732 <_vfprintf_r+0x13aa>
   11722:	0210                	addi	a2,sp,256
   11724:	85ca                	mv	a1,s2
   11726:	854e                	mv	a0,s3
   11728:	41d040ef          	jal	ra,16344 <__sprint_r>
   1172c:	1a051863          	bnez	a0,118dc <_vfprintf_r+0x1554>
   11730:	0310                	addi	a2,sp,384
   11732:	34c1                	addiw	s1,s1,-16
   11734:	8bb2                	mv	s7,a2
   11736:	b591                	j	1157a <_vfprintf_r+0x11f2>
   11738:	10812783          	lw	a5,264(sp)
   1173c:	4605                	li	a2,1
   1173e:	009bb023          	sd	s1,0(s7)
   11742:	0017869b          	addiw	a3,a5,1
   11746:	0705                	addi	a4,a4,1
   11748:	87b6                	mv	a5,a3
   1174a:	010b8c93          	addi	s9,s7,16
   1174e:	01464663          	blt	a2,s4,1175a <_vfprintf_r+0x13d2>
   11752:	00147593          	andi	a1,s0,1
   11756:	12058763          	beqz	a1,11884 <_vfprintf_r+0x14fc>
   1175a:	4605                	li	a2,1
   1175c:	10f12423          	sw	a5,264(sp)
   11760:	00cbb423          	sd	a2,8(s7)
   11764:	ea3a                	sd	a4,272(sp)
   11766:	479d                	li	a5,7
   11768:	00d7da63          	ble	a3,a5,1177c <_vfprintf_r+0x13f4>
   1176c:	0210                	addi	a2,sp,256
   1176e:	85ca                	mv	a1,s2
   11770:	854e                	mv	a0,s3
   11772:	3d3040ef          	jal	ra,16344 <__sprint_r>
   11776:	16051363          	bnez	a0,118dc <_vfprintf_r+0x1554>
   1177a:	8cd6                	mv	s9,s5
   1177c:	67c6                	ld	a5,80(sp)
   1177e:	7702                	ld	a4,32(sp)
   11780:	0cc1                	addi	s9,s9,16
   11782:	fefcb823          	sd	a5,-16(s9)
   11786:	7782                	ld	a5,32(sp)
   11788:	fefcbc23          	sd	a5,-8(s9)
   1178c:	67d2                	ld	a5,272(sp)
   1178e:	97ba                	add	a5,a5,a4
   11790:	ea3e                	sd	a5,272(sp)
   11792:	10812783          	lw	a5,264(sp)
   11796:	0017871b          	addiw	a4,a5,1
   1179a:	10e12423          	sw	a4,264(sp)
   1179e:	479d                	li	a5,7
   117a0:	00e7da63          	ble	a4,a5,117b4 <_vfprintf_r+0x142c>
   117a4:	0210                	addi	a2,sp,256
   117a6:	85ca                	mv	a1,s2
   117a8:	854e                	mv	a0,s3
   117aa:	39b040ef          	jal	ra,16344 <__sprint_r>
   117ae:	12051763          	bnez	a0,118dc <_vfprintf_r+0x1554>
   117b2:	8cd6                	mv	s9,s5
   117b4:	754e                	ld	a0,240(sp)
   117b6:	75ee                	ld	a1,248(sp)
   117b8:	4601                	li	a2,0
   117ba:	4681                	li	a3,0
   117bc:	fffa0b1b          	addiw	s6,s4,-1
   117c0:	769060ef          	jal	ra,18728 <__eqtf2>
   117c4:	c12d                	beqz	a0,11826 <_vfprintf_r+0x149e>
   117c6:	10812703          	lw	a4,264(sp)
   117ca:	67d2                	ld	a5,272(sp)
   117cc:	0485                	addi	s1,s1,1
   117ce:	0017069b          	addiw	a3,a4,1
   117d2:	97da                	add	a5,a5,s6
   117d4:	009cb023          	sd	s1,0(s9)
   117d8:	016cb423          	sd	s6,8(s9)
   117dc:	ea3e                	sd	a5,272(sp)
   117de:	10d12423          	sw	a3,264(sp)
   117e2:	479d                	li	a5,7
   117e4:	0cc1                	addi	s9,s9,16
   117e6:	00d7d963          	ble	a3,a5,117f8 <_vfprintf_r+0x1470>
   117ea:	0210                	addi	a2,sp,256
   117ec:	85ca                	mv	a1,s2
   117ee:	854e                	mv	a0,s3
   117f0:	355040ef          	jal	ra,16344 <__sprint_r>
   117f4:	e565                	bnez	a0,118dc <_vfprintf_r+0x1554>
   117f6:	8cd6                	mv	s9,s5
   117f8:	119c                	addi	a5,sp,224
   117fa:	00fcb023          	sd	a5,0(s9)
   117fe:	7786                	ld	a5,96(sp)
   11800:	7706                	ld	a4,96(sp)
   11802:	010c8b93          	addi	s7,s9,16
   11806:	00fcb423          	sd	a5,8(s9)
   1180a:	67d2                	ld	a5,272(sp)
   1180c:	97ba                	add	a5,a5,a4
   1180e:	ea3e                	sd	a5,272(sp)
   11810:	10812783          	lw	a5,264(sp)
   11814:	0017871b          	addiw	a4,a5,1
   11818:	10e12423          	sw	a4,264(sp)
   1181c:	479d                	li	a5,7
   1181e:	a6e7dce3          	ble	a4,a5,11296 <_vfprintf_r+0xf0e>
   11822:	89aff06f          	j	108bc <_vfprintf_r+0x534>
   11826:	fd6059e3          	blez	s6,117f8 <_vfprintf_r+0x1470>
   1182a:	44c1                	li	s1,16
   1182c:	4d9d                	li	s11,7
   1182e:	10812703          	lw	a4,264(sp)
   11832:	67d2                	ld	a5,272(sp)
   11834:	010c8613          	addi	a2,s9,16
   11838:	0017069b          	addiw	a3,a4,1
   1183c:	8736                	mv	a4,a3
   1183e:	0164ce63          	blt	s1,s6,1185a <_vfprintf_r+0x14d2>
   11842:	6742                	ld	a4,16(sp)
   11844:	97da                	add	a5,a5,s6
   11846:	016cb423          	sd	s6,8(s9)
   1184a:	00ecb023          	sd	a4,0(s9)
   1184e:	ea3e                	sd	a5,272(sp)
   11850:	10d12423          	sw	a3,264(sp)
   11854:	479d                	li	a5,7
   11856:	8cb2                	mv	s9,a2
   11858:	b779                	j	117e6 <_vfprintf_r+0x145e>
   1185a:	65c2                	ld	a1,16(sp)
   1185c:	07c1                	addi	a5,a5,16
   1185e:	009cb423          	sd	s1,8(s9)
   11862:	00bcb023          	sd	a1,0(s9)
   11866:	ea3e                	sd	a5,272(sp)
   11868:	10e12423          	sw	a4,264(sp)
   1186c:	00ddd963          	ble	a3,s11,1187e <_vfprintf_r+0x14f6>
   11870:	0210                	addi	a2,sp,256
   11872:	85ca                	mv	a1,s2
   11874:	854e                	mv	a0,s3
   11876:	2cf040ef          	jal	ra,16344 <__sprint_r>
   1187a:	e12d                	bnez	a0,118dc <_vfprintf_r+0x1554>
   1187c:	8656                	mv	a2,s5
   1187e:	3b41                	addiw	s6,s6,-16
   11880:	8cb2                	mv	s9,a2
   11882:	b775                	j	1182e <_vfprintf_r+0x14a6>
   11884:	00cbb423          	sd	a2,8(s7)
   11888:	ea3a                	sd	a4,272(sp)
   1188a:	10d12423          	sw	a3,264(sp)
   1188e:	479d                	li	a5,7
   11890:	bf99                	j	117e6 <_vfprintf_r+0x145e>
   11892:	57a2                	lw	a5,40(sp)
   11894:	4706                	lw	a4,64(sp)
   11896:	40e7843b          	subw	s0,a5,a4
   1189a:	a08051e3          	blez	s0,1129c <_vfprintf_r+0xf14>
   1189e:	67e9                	lui	a5,0x1a
   118a0:	4b41                	li	s6,16
   118a2:	dd078493          	addi	s1,a5,-560 # 19dd0 <blanks.4412>
   118a6:	4c9d                	li	s9,7
   118a8:	10812703          	lw	a4,264(sp)
   118ac:	009bb023          	sd	s1,0(s7)
   118b0:	67d2                	ld	a5,272(sp)
   118b2:	0017069b          	addiw	a3,a4,1
   118b6:	8736                	mv	a4,a3
   118b8:	028b4a63          	blt	s6,s0,118ec <_vfprintf_r+0x1564>
   118bc:	008bb423          	sd	s0,8(s7)
   118c0:	943e                	add	s0,s0,a5
   118c2:	ea22                	sd	s0,272(sp)
   118c4:	10d12423          	sw	a3,264(sp)
   118c8:	479d                	li	a5,7
   118ca:	9cd7d9e3          	ble	a3,a5,1129c <_vfprintf_r+0xf14>
   118ce:	0210                	addi	a2,sp,256
   118d0:	85ca                	mv	a1,s2
   118d2:	854e                	mv	a0,s3
   118d4:	271040ef          	jal	ra,16344 <__sprint_r>
   118d8:	9c0502e3          	beqz	a0,1129c <_vfprintf_r+0xf14>
   118dc:	940c0763          	beqz	s8,10a2a <_vfprintf_r+0x6a2>
   118e0:	85e2                	mv	a1,s8
   118e2:	854e                	mv	a0,s3
   118e4:	71c000ef          	jal	ra,12000 <_free_r>
   118e8:	942ff06f          	j	10a2a <_vfprintf_r+0x6a2>
   118ec:	07c1                	addi	a5,a5,16
   118ee:	016bb423          	sd	s6,8(s7)
   118f2:	ea3e                	sd	a5,272(sp)
   118f4:	10e12423          	sw	a4,264(sp)
   118f8:	0bc1                	addi	s7,s7,16
   118fa:	00dcd963          	ble	a3,s9,1190c <_vfprintf_r+0x1584>
   118fe:	0210                	addi	a2,sp,256
   11900:	85ca                	mv	a1,s2
   11902:	854e                	mv	a0,s3
   11904:	241040ef          	jal	ra,16344 <__sprint_r>
   11908:	f971                	bnez	a0,118dc <_vfprintf_r+0x1554>
   1190a:	8bd6                	mv	s7,s5
   1190c:	3441                	addiw	s0,s0,-16
   1190e:	bf69                	j	118a8 <_vfprintf_r+0x1520>
   11910:	85e2                	mv	a1,s8
   11912:	854e                	mv	a0,s3
   11914:	6ec000ef          	jal	ra,12000 <_free_r>
   11918:	ba45                	j	112c8 <_vfprintf_r+0xf40>
   1191a:	67d2                	ld	a5,272(sp)
   1191c:	90078763          	beqz	a5,10a2a <_vfprintf_r+0x6a2>
   11920:	0210                	addi	a2,sp,256
   11922:	85ca                	mv	a1,s2
   11924:	854e                	mv	a0,s3
   11926:	21f040ef          	jal	ra,16344 <__sprint_r>
   1192a:	900ff06f          	j	10a2a <_vfprintf_r+0x6a2>

000000000001192e <vfprintf>:
   1192e:	86b2                	mv	a3,a2
   11930:	862e                	mv	a2,a1
   11932:	85aa                	mv	a1,a0
   11934:	8301b503          	ld	a0,-2000(gp) # 1ca98 <_impure_ptr>
   11938:	a51fe06f          	j	10388 <_vfprintf_r>

000000000001193c <__sbprintf>:
   1193c:	0105d783          	lhu	a5,16(a1)
   11940:	b3010113          	addi	sp,sp,-1232
   11944:	4c813023          	sd	s0,1216(sp)
   11948:	9bf5                	andi	a5,a5,-3
   1194a:	00f11823          	sh	a5,16(sp)
   1194e:	0ac5a783          	lw	a5,172(a1)
   11952:	842e                	mv	s0,a1
   11954:	4a913c23          	sd	s1,1208(sp)
   11958:	d73e                	sw	a5,172(sp)
   1195a:	0125d783          	lhu	a5,18(a1)
   1195e:	4b213823          	sd	s2,1200(sp)
   11962:	4c113423          	sd	ra,1224(sp)
   11966:	00f11923          	sh	a5,18(sp)
   1196a:	799c                	ld	a5,48(a1)
   1196c:	892a                	mv	s2,a0
   1196e:	d402                	sw	zero,40(sp)
   11970:	f83e                	sd	a5,48(sp)
   11972:	61bc                	ld	a5,64(a1)
   11974:	858a                	mv	a1,sp
   11976:	e0be                	sd	a5,64(sp)
   11978:	191c                	addi	a5,sp,176
   1197a:	e03e                	sd	a5,0(sp)
   1197c:	ec3e                	sd	a5,24(sp)
   1197e:	40000793          	li	a5,1024
   11982:	c63e                	sw	a5,12(sp)
   11984:	d03e                	sw	a5,32(sp)
   11986:	a03fe0ef          	jal	ra,10388 <_vfprintf_r>
   1198a:	84aa                	mv	s1,a0
   1198c:	00054863          	bltz	a0,1199c <__sbprintf+0x60>
   11990:	858a                	mv	a1,sp
   11992:	854a                	mv	a0,s2
   11994:	384000ef          	jal	ra,11d18 <_fflush_r>
   11998:	c111                	beqz	a0,1199c <__sbprintf+0x60>
   1199a:	54fd                	li	s1,-1
   1199c:	01015783          	lhu	a5,16(sp)
   119a0:	0407f793          	andi	a5,a5,64
   119a4:	c799                	beqz	a5,119b2 <__sbprintf+0x76>
   119a6:	01045783          	lhu	a5,16(s0)
   119aa:	0407e793          	ori	a5,a5,64
   119ae:	00f41823          	sh	a5,16(s0)
   119b2:	4c813083          	ld	ra,1224(sp)
   119b6:	4c013403          	ld	s0,1216(sp)
   119ba:	8526                	mv	a0,s1
   119bc:	4b013903          	ld	s2,1200(sp)
   119c0:	4b813483          	ld	s1,1208(sp)
   119c4:	4d010113          	addi	sp,sp,1232
   119c8:	8082                	ret

00000000000119ca <__swsetup_r>:
   119ca:	1101                	addi	sp,sp,-32
   119cc:	e426                	sd	s1,8(sp)
   119ce:	84aa                	mv	s1,a0
   119d0:	8301b503          	ld	a0,-2000(gp) # 1ca98 <_impure_ptr>
   119d4:	e822                	sd	s0,16(sp)
   119d6:	ec06                	sd	ra,24(sp)
   119d8:	842e                	mv	s0,a1
   119da:	c509                	beqz	a0,119e4 <__swsetup_r+0x1a>
   119dc:	493c                	lw	a5,80(a0)
   119de:	e399                	bnez	a5,119e4 <__swsetup_r+0x1a>
   119e0:	450000ef          	jal	ra,11e30 <__sinit>
   119e4:	01041703          	lh	a4,16(s0)
   119e8:	03071793          	slli	a5,a4,0x30
   119ec:	93c1                	srli	a5,a5,0x30
   119ee:	0087f693          	andi	a3,a5,8
   119f2:	eea9                	bnez	a3,11a4c <__swsetup_r+0x82>
   119f4:	0107f693          	andi	a3,a5,16
   119f8:	ee89                	bnez	a3,11a12 <__swsetup_r+0x48>
   119fa:	47a5                	li	a5,9
   119fc:	c09c                	sw	a5,0(s1)
   119fe:	04076713          	ori	a4,a4,64
   11a02:	00e41823          	sh	a4,16(s0)
   11a06:	557d                	li	a0,-1
   11a08:	60e2                	ld	ra,24(sp)
   11a0a:	6442                	ld	s0,16(sp)
   11a0c:	64a2                	ld	s1,8(sp)
   11a0e:	6105                	addi	sp,sp,32
   11a10:	8082                	ret
   11a12:	8b91                	andi	a5,a5,4
   11a14:	c795                	beqz	a5,11a40 <__swsetup_r+0x76>
   11a16:	6c2c                	ld	a1,88(s0)
   11a18:	c991                	beqz	a1,11a2c <__swsetup_r+0x62>
   11a1a:	07440793          	addi	a5,s0,116
   11a1e:	00f58563          	beq	a1,a5,11a28 <__swsetup_r+0x5e>
   11a22:	8526                	mv	a0,s1
   11a24:	5dc000ef          	jal	ra,12000 <_free_r>
   11a28:	04043c23          	sd	zero,88(s0)
   11a2c:	01045783          	lhu	a5,16(s0)
   11a30:	00042423          	sw	zero,8(s0)
   11a34:	fdb7f793          	andi	a5,a5,-37
   11a38:	00f41823          	sh	a5,16(s0)
   11a3c:	6c1c                	ld	a5,24(s0)
   11a3e:	e01c                	sd	a5,0(s0)
   11a40:	01045783          	lhu	a5,16(s0)
   11a44:	0087e793          	ori	a5,a5,8
   11a48:	00f41823          	sh	a5,16(s0)
   11a4c:	6c1c                	ld	a5,24(s0)
   11a4e:	ef89                	bnez	a5,11a68 <__swsetup_r+0x9e>
   11a50:	01045783          	lhu	a5,16(s0)
   11a54:	20000713          	li	a4,512
   11a58:	2807f793          	andi	a5,a5,640
   11a5c:	00e78663          	beq	a5,a4,11a68 <__swsetup_r+0x9e>
   11a60:	85a2                	mv	a1,s0
   11a62:	8526                	mv	a0,s1
   11a64:	042020ef          	jal	ra,13aa6 <__smakebuf_r>
   11a68:	01045783          	lhu	a5,16(s0)
   11a6c:	0017f713          	andi	a4,a5,1
   11a70:	c705                	beqz	a4,11a98 <__swsetup_r+0xce>
   11a72:	501c                	lw	a5,32(s0)
   11a74:	00042623          	sw	zero,12(s0)
   11a78:	40f007bb          	negw	a5,a5
   11a7c:	d41c                	sw	a5,40(s0)
   11a7e:	6c1c                	ld	a5,24(s0)
   11a80:	4501                	li	a0,0
   11a82:	f3d9                	bnez	a5,11a08 <__swsetup_r+0x3e>
   11a84:	01041783          	lh	a5,16(s0)
   11a88:	0807f713          	andi	a4,a5,128
   11a8c:	df35                	beqz	a4,11a08 <__swsetup_r+0x3e>
   11a8e:	0407e793          	ori	a5,a5,64
   11a92:	00f41823          	sh	a5,16(s0)
   11a96:	bf85                	j	11a06 <__swsetup_r+0x3c>
   11a98:	8b89                	andi	a5,a5,2
   11a9a:	4701                	li	a4,0
   11a9c:	e391                	bnez	a5,11aa0 <__swsetup_r+0xd6>
   11a9e:	5018                	lw	a4,32(s0)
   11aa0:	c458                	sw	a4,12(s0)
   11aa2:	bff1                	j	11a7e <__swsetup_r+0xb4>

0000000000011aa4 <__register_exitproc>:
   11aa4:	8281b703          	ld	a4,-2008(gp) # 1ca90 <_global_impure_ptr>
   11aa8:	832a                	mv	t1,a0
   11aaa:	1f873783          	ld	a5,504(a4)
   11aae:	e789                	bnez	a5,11ab8 <__register_exitproc+0x14>
   11ab0:	20070793          	addi	a5,a4,512
   11ab4:	1ef73c23          	sd	a5,504(a4)
   11ab8:	4798                	lw	a4,8(a5)
   11aba:	487d                	li	a6,31
   11abc:	557d                	li	a0,-1
   11abe:	04e84463          	blt	a6,a4,11b06 <__register_exitproc+0x62>
   11ac2:	02030a63          	beqz	t1,11af6 <__register_exitproc+0x52>
   11ac6:	00371813          	slli	a6,a4,0x3
   11aca:	983e                	add	a6,a6,a5
   11acc:	10c83823          	sd	a2,272(a6)
   11ad0:	3107a883          	lw	a7,784(a5)
   11ad4:	4605                	li	a2,1
   11ad6:	00e6163b          	sllw	a2,a2,a4
   11ada:	00c8e8b3          	or	a7,a7,a2
   11ade:	3117a823          	sw	a7,784(a5)
   11ae2:	20d83823          	sd	a3,528(a6)
   11ae6:	4689                	li	a3,2
   11ae8:	00d31763          	bne	t1,a3,11af6 <__register_exitproc+0x52>
   11aec:	3147a683          	lw	a3,788(a5)
   11af0:	8e55                	or	a2,a2,a3
   11af2:	30c7aa23          	sw	a2,788(a5)
   11af6:	0017069b          	addiw	a3,a4,1
   11afa:	0709                	addi	a4,a4,2
   11afc:	070e                	slli	a4,a4,0x3
   11afe:	c794                	sw	a3,8(a5)
   11b00:	97ba                	add	a5,a5,a4
   11b02:	e38c                	sd	a1,0(a5)
   11b04:	4501                	li	a0,0
   11b06:	8082                	ret

0000000000011b08 <__call_exitprocs>:
   11b08:	715d                	addi	sp,sp,-80
   11b0a:	f44e                	sd	s3,40(sp)
   11b0c:	8281b983          	ld	s3,-2008(gp) # 1ca90 <_global_impure_ptr>
   11b10:	f052                	sd	s4,32(sp)
   11b12:	ec56                	sd	s5,24(sp)
   11b14:	e85a                	sd	s6,16(sp)
   11b16:	e486                	sd	ra,72(sp)
   11b18:	e0a2                	sd	s0,64(sp)
   11b1a:	fc26                	sd	s1,56(sp)
   11b1c:	f84a                	sd	s2,48(sp)
   11b1e:	e45e                	sd	s7,8(sp)
   11b20:	8aaa                	mv	s5,a0
   11b22:	8a2e                	mv	s4,a1
   11b24:	4b05                	li	s6,1
   11b26:	1f89b403          	ld	s0,504(s3)
   11b2a:	c801                	beqz	s0,11b3a <__call_exitprocs+0x32>
   11b2c:	4404                	lw	s1,8(s0)
   11b2e:	34fd                	addiw	s1,s1,-1
   11b30:	00349913          	slli	s2,s1,0x3
   11b34:	9922                	add	s2,s2,s0
   11b36:	0004dd63          	bgez	s1,11b50 <__call_exitprocs+0x48>
   11b3a:	60a6                	ld	ra,72(sp)
   11b3c:	6406                	ld	s0,64(sp)
   11b3e:	74e2                	ld	s1,56(sp)
   11b40:	7942                	ld	s2,48(sp)
   11b42:	79a2                	ld	s3,40(sp)
   11b44:	7a02                	ld	s4,32(sp)
   11b46:	6ae2                	ld	s5,24(sp)
   11b48:	6b42                	ld	s6,16(sp)
   11b4a:	6ba2                	ld	s7,8(sp)
   11b4c:	6161                	addi	sp,sp,80
   11b4e:	8082                	ret
   11b50:	000a0963          	beqz	s4,11b62 <__call_exitprocs+0x5a>
   11b54:	21093783          	ld	a5,528(s2)
   11b58:	01478563          	beq	a5,s4,11b62 <__call_exitprocs+0x5a>
   11b5c:	34fd                	addiw	s1,s1,-1
   11b5e:	1961                	addi	s2,s2,-8
   11b60:	bfd9                	j	11b36 <__call_exitprocs+0x2e>
   11b62:	441c                	lw	a5,8(s0)
   11b64:	01093683          	ld	a3,16(s2)
   11b68:	37fd                	addiw	a5,a5,-1
   11b6a:	02979663          	bne	a5,s1,11b96 <__call_exitprocs+0x8e>
   11b6e:	c404                	sw	s1,8(s0)
   11b70:	d6f5                	beqz	a3,11b5c <__call_exitprocs+0x54>
   11b72:	31042703          	lw	a4,784(s0)
   11b76:	009b163b          	sllw	a2,s6,s1
   11b7a:	00842b83          	lw	s7,8(s0)
   11b7e:	8f71                	and	a4,a4,a2
   11b80:	2701                	sext.w	a4,a4
   11b82:	ef09                	bnez	a4,11b9c <__call_exitprocs+0x94>
   11b84:	9682                	jalr	a3
   11b86:	4418                	lw	a4,8(s0)
   11b88:	1f89b783          	ld	a5,504(s3)
   11b8c:	f9771de3          	bne	a4,s7,11b26 <__call_exitprocs+0x1e>
   11b90:	fcf406e3          	beq	s0,a5,11b5c <__call_exitprocs+0x54>
   11b94:	bf49                	j	11b26 <__call_exitprocs+0x1e>
   11b96:	00093823          	sd	zero,16(s2)
   11b9a:	bfd9                	j	11b70 <__call_exitprocs+0x68>
   11b9c:	31442783          	lw	a5,788(s0)
   11ba0:	11093583          	ld	a1,272(s2)
   11ba4:	8ff1                	and	a5,a5,a2
   11ba6:	2781                	sext.w	a5,a5
   11ba8:	e781                	bnez	a5,11bb0 <__call_exitprocs+0xa8>
   11baa:	8556                	mv	a0,s5
   11bac:	9682                	jalr	a3
   11bae:	bfe1                	j	11b86 <__call_exitprocs+0x7e>
   11bb0:	852e                	mv	a0,a1
   11bb2:	9682                	jalr	a3
   11bb4:	bfc9                	j	11b86 <__call_exitprocs+0x7e>

0000000000011bb6 <__sflush_r>:
   11bb6:	01059783          	lh	a5,16(a1)
   11bba:	7179                	addi	sp,sp,-48
   11bbc:	f022                	sd	s0,32(sp)
   11bbe:	03079713          	slli	a4,a5,0x30
   11bc2:	9341                	srli	a4,a4,0x30
   11bc4:	ec26                	sd	s1,24(sp)
   11bc6:	f406                	sd	ra,40(sp)
   11bc8:	e84a                	sd	s2,16(sp)
   11bca:	e44e                	sd	s3,8(sp)
   11bcc:	00877693          	andi	a3,a4,8
   11bd0:	84aa                	mv	s1,a0
   11bd2:	842e                	mv	s0,a1
   11bd4:	10069063          	bnez	a3,11cd4 <__sflush_r+0x11e>
   11bd8:	6705                	lui	a4,0x1
   11bda:	80070713          	addi	a4,a4,-2048 # 800 <_start-0xf8b0>
   11bde:	8fd9                	or	a5,a5,a4
   11be0:	4598                	lw	a4,8(a1)
   11be2:	00f59823          	sh	a5,16(a1)
   11be6:	00e04d63          	bgtz	a4,11c00 <__sflush_r+0x4a>
   11bea:	59b8                	lw	a4,112(a1)
   11bec:	00e04a63          	bgtz	a4,11c00 <__sflush_r+0x4a>
   11bf0:	4501                	li	a0,0
   11bf2:	70a2                	ld	ra,40(sp)
   11bf4:	7402                	ld	s0,32(sp)
   11bf6:	64e2                	ld	s1,24(sp)
   11bf8:	6942                	ld	s2,16(sp)
   11bfa:	69a2                	ld	s3,8(sp)
   11bfc:	6145                	addi	sp,sp,48
   11bfe:	8082                	ret
   11c00:	6438                	ld	a4,72(s0)
   11c02:	d77d                	beqz	a4,11bf0 <__sflush_r+0x3a>
   11c04:	0004a903          	lw	s2,0(s1)
   11c08:	03379693          	slli	a3,a5,0x33
   11c0c:	0004a023          	sw	zero,0(s1)
   11c10:	780c                	ld	a1,48(s0)
   11c12:	0806d863          	bgez	a3,11ca2 <__sflush_r+0xec>
   11c16:	6850                	ld	a2,144(s0)
   11c18:	01045783          	lhu	a5,16(s0)
   11c1c:	8b91                	andi	a5,a5,4
   11c1e:	c799                	beqz	a5,11c2c <__sflush_r+0x76>
   11c20:	441c                	lw	a5,8(s0)
   11c22:	8e1d                	sub	a2,a2,a5
   11c24:	6c3c                	ld	a5,88(s0)
   11c26:	c399                	beqz	a5,11c2c <__sflush_r+0x76>
   11c28:	583c                	lw	a5,112(s0)
   11c2a:	8e1d                	sub	a2,a2,a5
   11c2c:	643c                	ld	a5,72(s0)
   11c2e:	780c                	ld	a1,48(s0)
   11c30:	4681                	li	a3,0
   11c32:	8526                	mv	a0,s1
   11c34:	9782                	jalr	a5
   11c36:	57fd                	li	a5,-1
   11c38:	01045683          	lhu	a3,16(s0)
   11c3c:	00f51d63          	bne	a0,a5,11c56 <__sflush_r+0xa0>
   11c40:	409c                	lw	a5,0(s1)
   11c42:	4775                	li	a4,29
   11c44:	08f76263          	bltu	a4,a5,11cc8 <__sflush_r+0x112>
   11c48:	20400737          	lui	a4,0x20400
   11c4c:	0705                	addi	a4,a4,1
   11c4e:	00f75733          	srl	a4,a4,a5
   11c52:	8b05                	andi	a4,a4,1
   11c54:	cb35                	beqz	a4,11cc8 <__sflush_r+0x112>
   11c56:	77fd                	lui	a5,0xfffff
   11c58:	7ff78793          	addi	a5,a5,2047 # fffffffffffff7ff <__global_pointer$+0xfffffffffffe2597>
   11c5c:	6c18                	ld	a4,24(s0)
   11c5e:	8ff5                	and	a5,a5,a3
   11c60:	0107979b          	slliw	a5,a5,0x10
   11c64:	4107d79b          	sraiw	a5,a5,0x10
   11c68:	e018                	sd	a4,0(s0)
   11c6a:	00f41823          	sh	a5,16(s0)
   11c6e:	00042423          	sw	zero,8(s0)
   11c72:	03379713          	slli	a4,a5,0x33
   11c76:	00075863          	bgez	a4,11c86 <__sflush_r+0xd0>
   11c7a:	57fd                	li	a5,-1
   11c7c:	00f51463          	bne	a0,a5,11c84 <__sflush_r+0xce>
   11c80:	409c                	lw	a5,0(s1)
   11c82:	e391                	bnez	a5,11c86 <__sflush_r+0xd0>
   11c84:	e848                	sd	a0,144(s0)
   11c86:	6c2c                	ld	a1,88(s0)
   11c88:	0124a023          	sw	s2,0(s1)
   11c8c:	d1b5                	beqz	a1,11bf0 <__sflush_r+0x3a>
   11c8e:	07440793          	addi	a5,s0,116
   11c92:	00f58563          	beq	a1,a5,11c9c <__sflush_r+0xe6>
   11c96:	8526                	mv	a0,s1
   11c98:	368000ef          	jal	ra,12000 <_free_r>
   11c9c:	04043c23          	sd	zero,88(s0)
   11ca0:	bf81                	j	11bf0 <__sflush_r+0x3a>
   11ca2:	4601                	li	a2,0
   11ca4:	4685                	li	a3,1
   11ca6:	8526                	mv	a0,s1
   11ca8:	9702                	jalr	a4
   11caa:	57fd                	li	a5,-1
   11cac:	862a                	mv	a2,a0
   11cae:	f6f515e3          	bne	a0,a5,11c18 <__sflush_r+0x62>
   11cb2:	409c                	lw	a5,0(s1)
   11cb4:	d3b5                	beqz	a5,11c18 <__sflush_r+0x62>
   11cb6:	4775                	li	a4,29
   11cb8:	00e78563          	beq	a5,a4,11cc2 <__sflush_r+0x10c>
   11cbc:	4759                	li	a4,22
   11cbe:	04e79463          	bne	a5,a4,11d06 <__sflush_r+0x150>
   11cc2:	0124a023          	sw	s2,0(s1)
   11cc6:	b72d                	j	11bf0 <__sflush_r+0x3a>
   11cc8:	0406e793          	ori	a5,a3,64
   11ccc:	00f41823          	sh	a5,16(s0)
   11cd0:	557d                	li	a0,-1
   11cd2:	b705                	j	11bf2 <__sflush_r+0x3c>
   11cd4:	0185b983          	ld	s3,24(a1)
   11cd8:	f0098ce3          	beqz	s3,11bf0 <__sflush_r+0x3a>
   11cdc:	0005b903          	ld	s2,0(a1)
   11ce0:	8b0d                	andi	a4,a4,3
   11ce2:	0135b023          	sd	s3,0(a1)
   11ce6:	4139093b          	subw	s2,s2,s3
   11cea:	4781                	li	a5,0
   11cec:	e311                	bnez	a4,11cf0 <__sflush_r+0x13a>
   11cee:	519c                	lw	a5,32(a1)
   11cf0:	c45c                	sw	a5,12(s0)
   11cf2:	ef205fe3          	blez	s2,11bf0 <__sflush_r+0x3a>
   11cf6:	603c                	ld	a5,64(s0)
   11cf8:	780c                	ld	a1,48(s0)
   11cfa:	86ca                	mv	a3,s2
   11cfc:	864e                	mv	a2,s3
   11cfe:	8526                	mv	a0,s1
   11d00:	9782                	jalr	a5
   11d02:	00a04763          	bgtz	a0,11d10 <__sflush_r+0x15a>
   11d06:	01045783          	lhu	a5,16(s0)
   11d0a:	0407e793          	ori	a5,a5,64
   11d0e:	bf7d                	j	11ccc <__sflush_r+0x116>
   11d10:	99aa                	add	s3,s3,a0
   11d12:	40a9093b          	subw	s2,s2,a0
   11d16:	bff1                	j	11cf2 <__sflush_r+0x13c>

0000000000011d18 <_fflush_r>:
   11d18:	1101                	addi	sp,sp,-32
   11d1a:	e822                	sd	s0,16(sp)
   11d1c:	ec06                	sd	ra,24(sp)
   11d1e:	842a                	mv	s0,a0
   11d20:	c519                	beqz	a0,11d2e <_fflush_r+0x16>
   11d22:	493c                	lw	a5,80(a0)
   11d24:	e789                	bnez	a5,11d2e <_fflush_r+0x16>
   11d26:	e42e                	sd	a1,8(sp)
   11d28:	108000ef          	jal	ra,11e30 <__sinit>
   11d2c:	65a2                	ld	a1,8(sp)
   11d2e:	01059783          	lh	a5,16(a1)
   11d32:	c799                	beqz	a5,11d40 <_fflush_r+0x28>
   11d34:	8522                	mv	a0,s0
   11d36:	6442                	ld	s0,16(sp)
   11d38:	60e2                	ld	ra,24(sp)
   11d3a:	6105                	addi	sp,sp,32
   11d3c:	e7bff06f          	j	11bb6 <__sflush_r>
   11d40:	60e2                	ld	ra,24(sp)
   11d42:	6442                	ld	s0,16(sp)
   11d44:	4501                	li	a0,0
   11d46:	6105                	addi	sp,sp,32
   11d48:	8082                	ret

0000000000011d4a <fflush>:
   11d4a:	85aa                	mv	a1,a0
   11d4c:	e909                	bnez	a0,11d5e <fflush+0x14>
   11d4e:	8281b503          	ld	a0,-2008(gp) # 1ca90 <_global_impure_ptr>
   11d52:	000125b7          	lui	a1,0x12
   11d56:	d1858593          	addi	a1,a1,-744 # 11d18 <_fflush_r>
   11d5a:	4bc0006f          	j	12216 <_fwalk_reent>
   11d5e:	8301b503          	ld	a0,-2000(gp) # 1ca98 <_impure_ptr>
   11d62:	fb7ff06f          	j	11d18 <_fflush_r>

0000000000011d66 <__fp_lock>:
   11d66:	4501                	li	a0,0
   11d68:	8082                	ret

0000000000011d6a <_cleanup_r>:
   11d6a:	000175b7          	lui	a1,0x17
   11d6e:	df458593          	addi	a1,a1,-524 # 16df4 <_fclose_r>
   11d72:	4a40006f          	j	12216 <_fwalk_reent>

0000000000011d76 <std.isra.0>:
   11d76:	1141                	addi	sp,sp,-16
   11d78:	e022                	sd	s0,0(sp)
   11d7a:	e406                	sd	ra,8(sp)
   11d7c:	842a                	mv	s0,a0
   11d7e:	00b51823          	sh	a1,16(a0)
   11d82:	00c51923          	sh	a2,18(a0)
   11d86:	00053023          	sd	zero,0(a0)
   11d8a:	00053423          	sd	zero,8(a0)
   11d8e:	0a052623          	sw	zero,172(a0)
   11d92:	00053c23          	sd	zero,24(a0)
   11d96:	02052023          	sw	zero,32(a0)
   11d9a:	02052423          	sw	zero,40(a0)
   11d9e:	4621                	li	a2,8
   11da0:	4581                	li	a1,0
   11da2:	0a450513          	addi	a0,a0,164
   11da6:	cecfe0ef          	jal	ra,10292 <memset>
   11daa:	000157b7          	lui	a5,0x15
   11dae:	bd478793          	addi	a5,a5,-1068 # 14bd4 <__sread>
   11db2:	fc1c                	sd	a5,56(s0)
   11db4:	000157b7          	lui	a5,0x15
   11db8:	c0a78793          	addi	a5,a5,-1014 # 14c0a <__swrite>
   11dbc:	e03c                	sd	a5,64(s0)
   11dbe:	000157b7          	lui	a5,0x15
   11dc2:	c5c78793          	addi	a5,a5,-932 # 14c5c <__sseek>
   11dc6:	e43c                	sd	a5,72(s0)
   11dc8:	000157b7          	lui	a5,0x15
   11dcc:	c9478793          	addi	a5,a5,-876 # 14c94 <__sclose>
   11dd0:	f800                	sd	s0,48(s0)
   11dd2:	e83c                	sd	a5,80(s0)
   11dd4:	60a2                	ld	ra,8(sp)
   11dd6:	6402                	ld	s0,0(sp)
   11dd8:	0141                	addi	sp,sp,16
   11dda:	8082                	ret

0000000000011ddc <__fp_unlock>:
   11ddc:	4501                	li	a0,0
   11dde:	8082                	ret

0000000000011de0 <__sfmoreglue>:
   11de0:	1101                	addi	sp,sp,-32
   11de2:	e426                	sd	s1,8(sp)
   11de4:	0b000613          	li	a2,176
   11de8:	fff5849b          	addiw	s1,a1,-1
   11dec:	02c484b3          	mul	s1,s1,a2
   11df0:	e04a                	sd	s2,0(sp)
   11df2:	892e                	mv	s2,a1
   11df4:	e822                	sd	s0,16(sp)
   11df6:	ec06                	sd	ra,24(sp)
   11df8:	0c848593          	addi	a1,s1,200
   11dfc:	54d010ef          	jal	ra,13b48 <_malloc_r>
   11e00:	842a                	mv	s0,a0
   11e02:	cd01                	beqz	a0,11e1a <__sfmoreglue+0x3a>
   11e04:	00053023          	sd	zero,0(a0)
   11e08:	01252423          	sw	s2,8(a0)
   11e0c:	0561                	addi	a0,a0,24
   11e0e:	e808                	sd	a0,16(s0)
   11e10:	0b048613          	addi	a2,s1,176
   11e14:	4581                	li	a1,0
   11e16:	c7cfe0ef          	jal	ra,10292 <memset>
   11e1a:	8522                	mv	a0,s0
   11e1c:	60e2                	ld	ra,24(sp)
   11e1e:	6442                	ld	s0,16(sp)
   11e20:	64a2                	ld	s1,8(sp)
   11e22:	6902                	ld	s2,0(sp)
   11e24:	6105                	addi	sp,sp,32
   11e26:	8082                	ret

0000000000011e28 <_cleanup>:
   11e28:	8281b503          	ld	a0,-2008(gp) # 1ca90 <_global_impure_ptr>
   11e2c:	f3fff06f          	j	11d6a <_cleanup_r>

0000000000011e30 <__sinit>:
   11e30:	493c                	lw	a5,80(a0)
   11e32:	eba1                	bnez	a5,11e82 <__sinit+0x52>
   11e34:	1141                	addi	sp,sp,-16
   11e36:	000127b7          	lui	a5,0x12
   11e3a:	e406                	sd	ra,8(sp)
   11e3c:	e022                	sd	s0,0(sp)
   11e3e:	d6a78793          	addi	a5,a5,-662 # 11d6a <_cleanup_r>
   11e42:	ed3c                	sd	a5,88(a0)
   11e44:	478d                	li	a5,3
   11e46:	52f52423          	sw	a5,1320(a0)
   11e4a:	53850793          	addi	a5,a0,1336
   11e4e:	842a                	mv	s0,a0
   11e50:	52f53823          	sd	a5,1328(a0)
   11e54:	52053023          	sd	zero,1312(a0)
   11e58:	6508                	ld	a0,8(a0)
   11e5a:	4601                	li	a2,0
   11e5c:	4591                	li	a1,4
   11e5e:	f19ff0ef          	jal	ra,11d76 <std.isra.0>
   11e62:	6808                	ld	a0,16(s0)
   11e64:	4605                	li	a2,1
   11e66:	45a5                	li	a1,9
   11e68:	f0fff0ef          	jal	ra,11d76 <std.isra.0>
   11e6c:	6c08                	ld	a0,24(s0)
   11e6e:	4609                	li	a2,2
   11e70:	45c9                	li	a1,18
   11e72:	f05ff0ef          	jal	ra,11d76 <std.isra.0>
   11e76:	4785                	li	a5,1
   11e78:	c83c                	sw	a5,80(s0)
   11e7a:	60a2                	ld	ra,8(sp)
   11e7c:	6402                	ld	s0,0(sp)
   11e7e:	0141                	addi	sp,sp,16
   11e80:	8082                	ret
   11e82:	8082                	ret

0000000000011e84 <__sfp>:
   11e84:	1101                	addi	sp,sp,-32
   11e86:	e426                	sd	s1,8(sp)
   11e88:	8281b483          	ld	s1,-2008(gp) # 1ca90 <_global_impure_ptr>
   11e8c:	e04a                	sd	s2,0(sp)
   11e8e:	ec06                	sd	ra,24(sp)
   11e90:	48bc                	lw	a5,80(s1)
   11e92:	e822                	sd	s0,16(sp)
   11e94:	892a                	mv	s2,a0
   11e96:	e781                	bnez	a5,11e9e <__sfp+0x1a>
   11e98:	8526                	mv	a0,s1
   11e9a:	f97ff0ef          	jal	ra,11e30 <__sinit>
   11e9e:	52048493          	addi	s1,s1,1312
   11ea2:	6880                	ld	s0,16(s1)
   11ea4:	449c                	lw	a5,8(s1)
   11ea6:	37fd                	addiw	a5,a5,-1
   11ea8:	0007d663          	bgez	a5,11eb4 <__sfp+0x30>
   11eac:	609c                	ld	a5,0(s1)
   11eae:	cb89                	beqz	a5,11ec0 <__sfp+0x3c>
   11eb0:	6084                	ld	s1,0(s1)
   11eb2:	bfc5                	j	11ea2 <__sfp+0x1e>
   11eb4:	01041703          	lh	a4,16(s0)
   11eb8:	c70d                	beqz	a4,11ee2 <__sfp+0x5e>
   11eba:	0b040413          	addi	s0,s0,176
   11ebe:	b7e5                	j	11ea6 <__sfp+0x22>
   11ec0:	4591                	li	a1,4
   11ec2:	854a                	mv	a0,s2
   11ec4:	f1dff0ef          	jal	ra,11de0 <__sfmoreglue>
   11ec8:	e088                	sd	a0,0(s1)
   11eca:	f17d                	bnez	a0,11eb0 <__sfp+0x2c>
   11ecc:	47b1                	li	a5,12
   11ece:	00f92023          	sw	a5,0(s2)
   11ed2:	4401                	li	s0,0
   11ed4:	8522                	mv	a0,s0
   11ed6:	60e2                	ld	ra,24(sp)
   11ed8:	6442                	ld	s0,16(sp)
   11eda:	64a2                	ld	s1,8(sp)
   11edc:	6902                	ld	s2,0(sp)
   11ede:	6105                	addi	sp,sp,32
   11ee0:	8082                	ret
   11ee2:	77c1                	lui	a5,0xffff0
   11ee4:	2785                	addiw	a5,a5,1
   11ee6:	0a042623          	sw	zero,172(s0)
   11eea:	00043023          	sd	zero,0(s0)
   11eee:	00043423          	sd	zero,8(s0)
   11ef2:	c81c                	sw	a5,16(s0)
   11ef4:	00043c23          	sd	zero,24(s0)
   11ef8:	02042023          	sw	zero,32(s0)
   11efc:	02042423          	sw	zero,40(s0)
   11f00:	4621                	li	a2,8
   11f02:	4581                	li	a1,0
   11f04:	0a440513          	addi	a0,s0,164
   11f08:	b8afe0ef          	jal	ra,10292 <memset>
   11f0c:	04043c23          	sd	zero,88(s0)
   11f10:	06042023          	sw	zero,96(s0)
   11f14:	06043c23          	sd	zero,120(s0)
   11f18:	08042023          	sw	zero,128(s0)
   11f1c:	bf65                	j	11ed4 <__sfp+0x50>

0000000000011f1e <__sfp_lock_acquire>:
   11f1e:	8082                	ret

0000000000011f20 <__sfp_lock_release>:
   11f20:	8082                	ret

0000000000011f22 <__sinit_lock_acquire>:
   11f22:	8082                	ret

0000000000011f24 <__sinit_lock_release>:
   11f24:	8082                	ret

0000000000011f26 <__fp_lock_all>:
   11f26:	8301b503          	ld	a0,-2000(gp) # 1ca98 <_impure_ptr>
   11f2a:	000125b7          	lui	a1,0x12
   11f2e:	d6658593          	addi	a1,a1,-666 # 11d66 <__fp_lock>
   11f32:	2800006f          	j	121b2 <_fwalk>

0000000000011f36 <__fp_unlock_all>:
   11f36:	8301b503          	ld	a0,-2000(gp) # 1ca98 <_impure_ptr>
   11f3a:	000125b7          	lui	a1,0x12
   11f3e:	ddc58593          	addi	a1,a1,-548 # 11ddc <__fp_unlock>
   11f42:	2700006f          	j	121b2 <_fwalk>

0000000000011f46 <_malloc_trim_r>:
   11f46:	7139                	addi	sp,sp,-64
   11f48:	f04a                	sd	s2,32(sp)
   11f4a:	6971                	lui	s2,0x1c
   11f4c:	f822                	sd	s0,48(sp)
   11f4e:	f426                	sd	s1,40(sp)
   11f50:	ec4e                	sd	s3,24(sp)
   11f52:	e42e                	sd	a1,8(sp)
   11f54:	fc06                	sd	ra,56(sp)
   11f56:	89aa                	mv	s3,a0
   11f58:	25890913          	addi	s2,s2,600 # 1c258 <__malloc_av_>
   11f5c:	134020ef          	jal	ra,14090 <__malloc_lock>
   11f60:	01093783          	ld	a5,16(s2)
   11f64:	65a2                	ld	a1,8(sp)
   11f66:	6784                	ld	s1,8(a5)
   11f68:	6785                	lui	a5,0x1
   11f6a:	fdf78413          	addi	s0,a5,-33 # fdf <_start-0xf0d1>
   11f6e:	98f1                	andi	s1,s1,-4
   11f70:	8c0d                	sub	s0,s0,a1
   11f72:	9426                	add	s0,s0,s1
   11f74:	8031                	srli	s0,s0,0xc
   11f76:	147d                	addi	s0,s0,-1
   11f78:	0432                	slli	s0,s0,0xc
   11f7a:	00f45d63          	ble	a5,s0,11f94 <_malloc_trim_r+0x4e>
   11f7e:	854e                	mv	a0,s3
   11f80:	112020ef          	jal	ra,14092 <__malloc_unlock>
   11f84:	4501                	li	a0,0
   11f86:	70e2                	ld	ra,56(sp)
   11f88:	7442                	ld	s0,48(sp)
   11f8a:	74a2                	ld	s1,40(sp)
   11f8c:	7902                	ld	s2,32(sp)
   11f8e:	69e2                	ld	s3,24(sp)
   11f90:	6121                	addi	sp,sp,64
   11f92:	8082                	ret
   11f94:	4581                	li	a1,0
   11f96:	854e                	mv	a0,s3
   11f98:	307020ef          	jal	ra,14a9e <_sbrk_r>
   11f9c:	01093783          	ld	a5,16(s2)
   11fa0:	97a6                	add	a5,a5,s1
   11fa2:	fcf51ee3          	bne	a0,a5,11f7e <_malloc_trim_r+0x38>
   11fa6:	408005b3          	neg	a1,s0
   11faa:	854e                	mv	a0,s3
   11fac:	2f3020ef          	jal	ra,14a9e <_sbrk_r>
   11fb0:	57fd                	li	a5,-1
   11fb2:	02f51663          	bne	a0,a5,11fde <_malloc_trim_r+0x98>
   11fb6:	4581                	li	a1,0
   11fb8:	854e                	mv	a0,s3
   11fba:	2e5020ef          	jal	ra,14a9e <_sbrk_r>
   11fbe:	01093703          	ld	a4,16(s2)
   11fc2:	46fd                	li	a3,31
   11fc4:	40e507b3          	sub	a5,a0,a4
   11fc8:	faf6dbe3          	ble	a5,a3,11f7e <_malloc_trim_r+0x38>
   11fcc:	8381b683          	ld	a3,-1992(gp) # 1caa0 <__malloc_sbrk_base>
   11fd0:	0017e793          	ori	a5,a5,1
   11fd4:	e71c                	sd	a5,8(a4)
   11fd6:	8d15                	sub	a0,a0,a3
   11fd8:	8aa1a423          	sw	a0,-1880(gp) # 1cb10 <__malloc_current_mallinfo>
   11fdc:	b74d                	j	11f7e <_malloc_trim_r+0x38>
   11fde:	01093783          	ld	a5,16(s2)
   11fe2:	8c81                	sub	s1,s1,s0
   11fe4:	0014e493          	ori	s1,s1,1
   11fe8:	e784                	sd	s1,8(a5)
   11fea:	8a81a783          	lw	a5,-1880(gp) # 1cb10 <__malloc_current_mallinfo>
   11fee:	854e                	mv	a0,s3
   11ff0:	4087843b          	subw	s0,a5,s0
   11ff4:	8a81a423          	sw	s0,-1880(gp) # 1cb10 <__malloc_current_mallinfo>
   11ff8:	09a020ef          	jal	ra,14092 <__malloc_unlock>
   11ffc:	4505                	li	a0,1
   11ffe:	b761                	j	11f86 <_malloc_trim_r+0x40>

0000000000012000 <_free_r>:
   12000:	1a058863          	beqz	a1,121b0 <_free_r+0x1b0>
   12004:	1101                	addi	sp,sp,-32
   12006:	e822                	sd	s0,16(sp)
   12008:	e426                	sd	s1,8(sp)
   1200a:	842a                	mv	s0,a0
   1200c:	84ae                	mv	s1,a1
   1200e:	ec06                	sd	ra,24(sp)
   12010:	080020ef          	jal	ra,14090 <__malloc_lock>
   12014:	ff84b503          	ld	a0,-8(s1)
   12018:	6671                	lui	a2,0x1c
   1201a:	ff048693          	addi	a3,s1,-16
   1201e:	ffe57793          	andi	a5,a0,-2
   12022:	25860813          	addi	a6,a2,600 # 1c258 <__malloc_av_>
   12026:	00f685b3          	add	a1,a3,a5
   1202a:	6598                	ld	a4,8(a1)
   1202c:	01083803          	ld	a6,16(a6)
   12030:	25860613          	addi	a2,a2,600
   12034:	9b71                	andi	a4,a4,-4
   12036:	8905                	andi	a0,a0,1
   12038:	04b81063          	bne	a6,a1,12078 <_free_r+0x78>
   1203c:	97ba                	add	a5,a5,a4
   1203e:	e909                	bnez	a0,12050 <_free_r+0x50>
   12040:	ff04b703          	ld	a4,-16(s1)
   12044:	8e99                	sub	a3,a3,a4
   12046:	6a8c                	ld	a1,16(a3)
   12048:	97ba                	add	a5,a5,a4
   1204a:	6e98                	ld	a4,24(a3)
   1204c:	ed98                	sd	a4,24(a1)
   1204e:	eb0c                	sd	a1,16(a4)
   12050:	0017e713          	ori	a4,a5,1
   12054:	e698                	sd	a4,8(a3)
   12056:	8401b703          	ld	a4,-1984(gp) # 1caa8 <__malloc_trim_threshold>
   1205a:	ea14                	sd	a3,16(a2)
   1205c:	00e7e763          	bltu	a5,a4,1206a <_free_r+0x6a>
   12060:	8601b583          	ld	a1,-1952(gp) # 1cac8 <__malloc_top_pad>
   12064:	8522                	mv	a0,s0
   12066:	ee1ff0ef          	jal	ra,11f46 <_malloc_trim_r>
   1206a:	8522                	mv	a0,s0
   1206c:	6442                	ld	s0,16(sp)
   1206e:	60e2                	ld	ra,24(sp)
   12070:	64a2                	ld	s1,8(sp)
   12072:	6105                	addi	sp,sp,32
   12074:	01e0206f          	j	14092 <__malloc_unlock>
   12078:	e598                	sd	a4,8(a1)
   1207a:	4801                	li	a6,0
   1207c:	e10d                	bnez	a0,1209e <_free_r+0x9e>
   1207e:	ff04b503          	ld	a0,-16(s1)
   12082:	68f1                	lui	a7,0x1c
   12084:	26888893          	addi	a7,a7,616 # 1c268 <__malloc_av_+0x10>
   12088:	8e89                	sub	a3,a3,a0
   1208a:	97aa                	add	a5,a5,a0
   1208c:	6a88                	ld	a0,16(a3)
   1208e:	07150e63          	beq	a0,a7,1210a <_free_r+0x10a>
   12092:	0186b883          	ld	a7,24(a3)
   12096:	01153c23          	sd	a7,24(a0)
   1209a:	00a8b823          	sd	a0,16(a7)
   1209e:	00e58533          	add	a0,a1,a4
   120a2:	6508                	ld	a0,8(a0)
   120a4:	8905                	andi	a0,a0,1
   120a6:	ed19                	bnez	a0,120c4 <_free_r+0xc4>
   120a8:	97ba                	add	a5,a5,a4
   120aa:	6998                	ld	a4,16(a1)
   120ac:	06081163          	bnez	a6,1210e <_free_r+0x10e>
   120b0:	6571                	lui	a0,0x1c
   120b2:	26850513          	addi	a0,a0,616 # 1c268 <__malloc_av_+0x10>
   120b6:	04a71c63          	bne	a4,a0,1210e <_free_r+0x10e>
   120ba:	f614                	sd	a3,40(a2)
   120bc:	f214                	sd	a3,32(a2)
   120be:	ee98                	sd	a4,24(a3)
   120c0:	ea98                	sd	a4,16(a3)
   120c2:	4805                	li	a6,1
   120c4:	0017e713          	ori	a4,a5,1
   120c8:	e698                	sd	a4,8(a3)
   120ca:	00f68733          	add	a4,a3,a5
   120ce:	e31c                	sd	a5,0(a4)
   120d0:	f8081de3          	bnez	a6,1206a <_free_r+0x6a>
   120d4:	1ff00713          	li	a4,511
   120d8:	02f76f63          	bltu	a4,a5,12116 <_free_r+0x116>
   120dc:	838d                	srli	a5,a5,0x3
   120de:	2781                	sext.w	a5,a5
   120e0:	4027d59b          	sraiw	a1,a5,0x2
   120e4:	4705                	li	a4,1
   120e6:	00b71733          	sll	a4,a4,a1
   120ea:	2785                	addiw	a5,a5,1
   120ec:	660c                	ld	a1,8(a2)
   120ee:	0017979b          	slliw	a5,a5,0x1
   120f2:	078e                	slli	a5,a5,0x3
   120f4:	97b2                	add	a5,a5,a2
   120f6:	8f4d                	or	a4,a4,a1
   120f8:	e618                	sd	a4,8(a2)
   120fa:	6398                	ld	a4,0(a5)
   120fc:	ff078613          	addi	a2,a5,-16
   12100:	ee90                	sd	a2,24(a3)
   12102:	ea98                	sd	a4,16(a3)
   12104:	e394                	sd	a3,0(a5)
   12106:	ef14                	sd	a3,24(a4)
   12108:	b78d                	j	1206a <_free_r+0x6a>
   1210a:	4805                	li	a6,1
   1210c:	bf49                	j	1209e <_free_r+0x9e>
   1210e:	6d8c                	ld	a1,24(a1)
   12110:	ef0c                	sd	a1,24(a4)
   12112:	e998                	sd	a4,16(a1)
   12114:	bf45                	j	120c4 <_free_r+0xc4>
   12116:	0097d593          	srli	a1,a5,0x9
   1211a:	4711                	li	a4,4
   1211c:	02b76e63          	bltu	a4,a1,12158 <_free_r+0x158>
   12120:	0067d713          	srli	a4,a5,0x6
   12124:	0387071b          	addiw	a4,a4,56
   12128:	0017059b          	addiw	a1,a4,1
   1212c:	0015959b          	slliw	a1,a1,0x1
   12130:	058e                	slli	a1,a1,0x3
   12132:	95b2                	add	a1,a1,a2
   12134:	ff058513          	addi	a0,a1,-16
   12138:	618c                	ld	a1,0(a1)
   1213a:	06b51563          	bne	a0,a1,121a4 <_free_r+0x1a4>
   1213e:	4785                	li	a5,1
   12140:	4027571b          	sraiw	a4,a4,0x2
   12144:	00e79733          	sll	a4,a5,a4
   12148:	661c                	ld	a5,8(a2)
   1214a:	8f5d                	or	a4,a4,a5
   1214c:	e618                	sd	a4,8(a2)
   1214e:	ee88                	sd	a0,24(a3)
   12150:	ea8c                	sd	a1,16(a3)
   12152:	e914                	sd	a3,16(a0)
   12154:	ed94                	sd	a3,24(a1)
   12156:	bf11                	j	1206a <_free_r+0x6a>
   12158:	4751                	li	a4,20
   1215a:	00b76563          	bltu	a4,a1,12164 <_free_r+0x164>
   1215e:	05b5871b          	addiw	a4,a1,91
   12162:	b7d9                	j	12128 <_free_r+0x128>
   12164:	05400713          	li	a4,84
   12168:	00b76763          	bltu	a4,a1,12176 <_free_r+0x176>
   1216c:	00c7d713          	srli	a4,a5,0xc
   12170:	06e7071b          	addiw	a4,a4,110
   12174:	bf55                	j	12128 <_free_r+0x128>
   12176:	15400713          	li	a4,340
   1217a:	00b76763          	bltu	a4,a1,12188 <_free_r+0x188>
   1217e:	00f7d713          	srli	a4,a5,0xf
   12182:	0777071b          	addiw	a4,a4,119
   12186:	b74d                	j	12128 <_free_r+0x128>
   12188:	55400513          	li	a0,1364
   1218c:	07e00713          	li	a4,126
   12190:	f8b56ce3          	bltu	a0,a1,12128 <_free_r+0x128>
   12194:	0127d713          	srli	a4,a5,0x12
   12198:	07c7071b          	addiw	a4,a4,124
   1219c:	b771                	j	12128 <_free_r+0x128>
   1219e:	698c                	ld	a1,16(a1)
   121a0:	00b50663          	beq	a0,a1,121ac <_free_r+0x1ac>
   121a4:	6598                	ld	a4,8(a1)
   121a6:	9b71                	andi	a4,a4,-4
   121a8:	fee7ebe3          	bltu	a5,a4,1219e <_free_r+0x19e>
   121ac:	6d88                	ld	a0,24(a1)
   121ae:	b745                	j	1214e <_free_r+0x14e>
   121b0:	8082                	ret

00000000000121b2 <_fwalk>:
   121b2:	715d                	addi	sp,sp,-80
   121b4:	e0a2                	sd	s0,64(sp)
   121b6:	fc26                	sd	s1,56(sp)
   121b8:	f052                	sd	s4,32(sp)
   121ba:	ec56                	sd	s5,24(sp)
   121bc:	e486                	sd	ra,72(sp)
   121be:	f84a                	sd	s2,48(sp)
   121c0:	f44e                	sd	s3,40(sp)
   121c2:	52050493          	addi	s1,a0,1312
   121c6:	4401                	li	s0,0
   121c8:	4a05                	li	s4,1
   121ca:	5afd                	li	s5,-1
   121cc:	e899                	bnez	s1,121e2 <_fwalk+0x30>
   121ce:	8522                	mv	a0,s0
   121d0:	60a6                	ld	ra,72(sp)
   121d2:	6406                	ld	s0,64(sp)
   121d4:	74e2                	ld	s1,56(sp)
   121d6:	7942                	ld	s2,48(sp)
   121d8:	79a2                	ld	s3,40(sp)
   121da:	7a02                	ld	s4,32(sp)
   121dc:	6ae2                	ld	s5,24(sp)
   121de:	6161                	addi	sp,sp,80
   121e0:	8082                	ret
   121e2:	0104b903          	ld	s2,16(s1)
   121e6:	0084a983          	lw	s3,8(s1)
   121ea:	39fd                	addiw	s3,s3,-1
   121ec:	0009d463          	bgez	s3,121f4 <_fwalk+0x42>
   121f0:	6084                	ld	s1,0(s1)
   121f2:	bfe9                	j	121cc <_fwalk+0x1a>
   121f4:	01095783          	lhu	a5,16(s2)
   121f8:	00fa7c63          	bleu	a5,s4,12210 <_fwalk+0x5e>
   121fc:	01291783          	lh	a5,18(s2)
   12200:	01578863          	beq	a5,s5,12210 <_fwalk+0x5e>
   12204:	854a                	mv	a0,s2
   12206:	e42e                	sd	a1,8(sp)
   12208:	9582                	jalr	a1
   1220a:	65a2                	ld	a1,8(sp)
   1220c:	8c49                	or	s0,s0,a0
   1220e:	2401                	sext.w	s0,s0
   12210:	0b090913          	addi	s2,s2,176
   12214:	bfd9                	j	121ea <_fwalk+0x38>

0000000000012216 <_fwalk_reent>:
   12216:	715d                	addi	sp,sp,-80
   12218:	e0a2                	sd	s0,64(sp)
   1221a:	fc26                	sd	s1,56(sp)
   1221c:	f052                	sd	s4,32(sp)
   1221e:	ec56                	sd	s5,24(sp)
   12220:	e85a                	sd	s6,16(sp)
   12222:	e45e                	sd	s7,8(sp)
   12224:	e486                	sd	ra,72(sp)
   12226:	f84a                	sd	s2,48(sp)
   12228:	f44e                	sd	s3,40(sp)
   1222a:	8a2a                	mv	s4,a0
   1222c:	8aae                	mv	s5,a1
   1222e:	52050493          	addi	s1,a0,1312
   12232:	4401                	li	s0,0
   12234:	4b05                	li	s6,1
   12236:	5bfd                	li	s7,-1
   12238:	ec89                	bnez	s1,12252 <_fwalk_reent+0x3c>
   1223a:	8522                	mv	a0,s0
   1223c:	60a6                	ld	ra,72(sp)
   1223e:	6406                	ld	s0,64(sp)
   12240:	74e2                	ld	s1,56(sp)
   12242:	7942                	ld	s2,48(sp)
   12244:	79a2                	ld	s3,40(sp)
   12246:	7a02                	ld	s4,32(sp)
   12248:	6ae2                	ld	s5,24(sp)
   1224a:	6b42                	ld	s6,16(sp)
   1224c:	6ba2                	ld	s7,8(sp)
   1224e:	6161                	addi	sp,sp,80
   12250:	8082                	ret
   12252:	0104b903          	ld	s2,16(s1)
   12256:	0084a983          	lw	s3,8(s1)
   1225a:	39fd                	addiw	s3,s3,-1
   1225c:	0009d463          	bgez	s3,12264 <_fwalk_reent+0x4e>
   12260:	6084                	ld	s1,0(s1)
   12262:	bfd9                	j	12238 <_fwalk_reent+0x22>
   12264:	01095783          	lhu	a5,16(s2)
   12268:	00fb7b63          	bleu	a5,s6,1227e <_fwalk_reent+0x68>
   1226c:	01291783          	lh	a5,18(s2)
   12270:	01778763          	beq	a5,s7,1227e <_fwalk_reent+0x68>
   12274:	85ca                	mv	a1,s2
   12276:	8552                	mv	a0,s4
   12278:	9a82                	jalr	s5
   1227a:	8c49                	or	s0,s0,a0
   1227c:	2401                	sext.w	s0,s0
   1227e:	0b090913          	addi	s2,s2,176
   12282:	bfe1                	j	1225a <_fwalk_reent+0x44>

0000000000012284 <eclear>:
   12284:	01450793          	addi	a5,a0,20
   12288:	0509                	addi	a0,a0,2
   1228a:	fe051f23          	sh	zero,-2(a0)
   1228e:	fef51de3          	bne	a0,a5,12288 <eclear+0x4>
   12292:	8082                	ret

0000000000012294 <emov>:
   12294:	01450793          	addi	a5,a0,20
   12298:	0509                	addi	a0,a0,2
   1229a:	ffe55703          	lhu	a4,-2(a0)
   1229e:	0589                	addi	a1,a1,2
   122a0:	fee59f23          	sh	a4,-2(a1)
   122a4:	fea79ae3          	bne	a5,a0,12298 <emov+0x4>
   122a8:	8082                	ret

00000000000122aa <ecleaz>:
   122aa:	01a50793          	addi	a5,a0,26
   122ae:	0509                	addi	a0,a0,2
   122b0:	fe051f23          	sh	zero,-2(a0)
   122b4:	fef51de3          	bne	a0,a5,122ae <ecleaz+0x4>
   122b8:	8082                	ret

00000000000122ba <emovz>:
   122ba:	01850713          	addi	a4,a0,24
   122be:	87ae                	mv	a5,a1
   122c0:	0509                	addi	a0,a0,2
   122c2:	ffe55683          	lhu	a3,-2(a0)
   122c6:	0789                	addi	a5,a5,2
   122c8:	fed79f23          	sh	a3,-2(a5)
   122cc:	fea71ae3          	bne	a4,a0,122c0 <emovz+0x6>
   122d0:	00059c23          	sh	zero,24(a1)
   122d4:	8082                	ret

00000000000122d6 <ecmpm>:
   122d6:	00450793          	addi	a5,a0,4
   122da:	0591                	addi	a1,a1,4
   122dc:	0569                	addi	a0,a0,26
   122de:	0789                	addi	a5,a5,2
   122e0:	0589                	addi	a1,a1,2
   122e2:	ffe7d683          	lhu	a3,-2(a5)
   122e6:	ffe5d703          	lhu	a4,-2(a1)
   122ea:	00e69663          	bne	a3,a4,122f6 <ecmpm+0x20>
   122ee:	fef518e3          	bne	a0,a5,122de <ecmpm+0x8>
   122f2:	4501                	li	a0,0
   122f4:	8082                	ret
   122f6:	4505                	li	a0,1
   122f8:	00d76363          	bltu	a4,a3,122fe <ecmpm+0x28>
   122fc:	557d                	li	a0,-1
   122fe:	8082                	ret

0000000000012300 <eshdn1>:
   12300:	00450693          	addi	a3,a0,4
   12304:	4781                	li	a5,0
   12306:	0569                	addi	a0,a0,26
   12308:	7661                	lui	a2,0xffff8
   1230a:	0006d703          	lhu	a4,0(a3)
   1230e:	00177593          	andi	a1,a4,1
   12312:	c199                	beqz	a1,12318 <eshdn1+0x18>
   12314:	0017e793          	ori	a5,a5,1
   12318:	0027f593          	andi	a1,a5,2
   1231c:	8305                	srli	a4,a4,0x1
   1231e:	e999                	bnez	a1,12334 <eshdn1+0x34>
   12320:	0017979b          	slliw	a5,a5,0x1
   12324:	00e69023          	sh	a4,0(a3)
   12328:	17c2                	slli	a5,a5,0x30
   1232a:	0689                	addi	a3,a3,2
   1232c:	93c1                	srli	a5,a5,0x30
   1232e:	fcd51ee3          	bne	a0,a3,1230a <eshdn1+0xa>
   12332:	8082                	ret
   12334:	8f51                	or	a4,a4,a2
   12336:	b7ed                	j	12320 <eshdn1+0x20>

0000000000012338 <eshup1>:
   12338:	01650693          	addi	a3,a0,22
   1233c:	4701                	li	a4,0
   1233e:	0026d783          	lhu	a5,2(a3)
   12342:	0107961b          	slliw	a2,a5,0x10
   12346:	4106561b          	sraiw	a2,a2,0x10
   1234a:	00065463          	bgez	a2,12352 <eshup1+0x1a>
   1234e:	00176713          	ori	a4,a4,1
   12352:	0017979b          	slliw	a5,a5,0x1
   12356:	17c2                	slli	a5,a5,0x30
   12358:	00277613          	andi	a2,a4,2
   1235c:	93c1                	srli	a5,a5,0x30
   1235e:	ea19                	bnez	a2,12374 <eshup1+0x3c>
   12360:	0017171b          	slliw	a4,a4,0x1
   12364:	00f69123          	sh	a5,2(a3)
   12368:	1742                	slli	a4,a4,0x30
   1236a:	16f9                	addi	a3,a3,-2
   1236c:	9341                	srli	a4,a4,0x30
   1236e:	fcd518e3          	bne	a0,a3,1233e <eshup1+0x6>
   12372:	8082                	ret
   12374:	0017e793          	ori	a5,a5,1
   12378:	b7e5                	j	12360 <eshup1+0x28>

000000000001237a <eshdn8>:
   1237a:	00450793          	addi	a5,a0,4
   1237e:	4701                	li	a4,0
   12380:	0569                	addi	a0,a0,26
   12382:	0007d683          	lhu	a3,0(a5)
   12386:	0789                	addi	a5,a5,2
   12388:	0086d61b          	srliw	a2,a3,0x8
   1238c:	8f51                	or	a4,a4,a2
   1238e:	fee79f23          	sh	a4,-2(a5)
   12392:	0086971b          	slliw	a4,a3,0x8
   12396:	1742                	slli	a4,a4,0x30
   12398:	9341                	srli	a4,a4,0x30
   1239a:	fef514e3          	bne	a0,a5,12382 <eshdn8+0x8>
   1239e:	8082                	ret

00000000000123a0 <eshup8>:
   123a0:	01650793          	addi	a5,a0,22
   123a4:	4701                	li	a4,0
   123a6:	0027d683          	lhu	a3,2(a5)
   123aa:	17f9                	addi	a5,a5,-2
   123ac:	00869613          	slli	a2,a3,0x8
   123b0:	8f51                	or	a4,a4,a2
   123b2:	00e79223          	sh	a4,4(a5)
   123b6:	0086d713          	srli	a4,a3,0x8
   123ba:	fef516e3          	bne	a0,a5,123a6 <eshup8+0x6>
   123be:	8082                	ret

00000000000123c0 <eshup6>:
   123c0:	00450793          	addi	a5,a0,4
   123c4:	01850713          	addi	a4,a0,24
   123c8:	0789                	addi	a5,a5,2
   123ca:	0007d683          	lhu	a3,0(a5)
   123ce:	fed79f23          	sh	a3,-2(a5)
   123d2:	fef71be3          	bne	a4,a5,123c8 <eshup6+0x8>
   123d6:	00051c23          	sh	zero,24(a0)
   123da:	8082                	ret

00000000000123dc <eshdn6>:
   123dc:	01850793          	addi	a5,a0,24
   123e0:	01a50713          	addi	a4,a0,26
   123e4:	00450693          	addi	a3,a0,4
   123e8:	17f9                	addi	a5,a5,-2
   123ea:	0007d603          	lhu	a2,0(a5)
   123ee:	1779                	addi	a4,a4,-2
   123f0:	00c71023          	sh	a2,0(a4) # 20400000 <__global_pointer$+0x203e2d98>
   123f4:	fef69ae3          	bne	a3,a5,123e8 <eshdn6+0xc>
   123f8:	00051223          	sh	zero,4(a0)
   123fc:	8082                	ret

00000000000123fe <eaddm>:
   123fe:	05e1                	addi	a1,a1,24
   12400:	01650713          	addi	a4,a0,22
   12404:	4681                	li	a3,0
   12406:	0005d783          	lhu	a5,0(a1)
   1240a:	1779                	addi	a4,a4,-2
   1240c:	15f9                	addi	a1,a1,-2
   1240e:	97b6                	add	a5,a5,a3
   12410:	00475683          	lhu	a3,4(a4)
   12414:	97b6                	add	a5,a5,a3
   12416:	00f59123          	sh	a5,2(a1)
   1241a:	83c1                	srli	a5,a5,0x10
   1241c:	0017f693          	andi	a3,a5,1
   12420:	fee513e3          	bne	a0,a4,12406 <eaddm+0x8>
   12424:	8082                	ret

0000000000012426 <esubm>:
   12426:	05e1                	addi	a1,a1,24
   12428:	01650713          	addi	a4,a0,22
   1242c:	4681                	li	a3,0
   1242e:	0005d783          	lhu	a5,0(a1)
   12432:	00275603          	lhu	a2,2(a4)
   12436:	1779                	addi	a4,a4,-2
   12438:	15f9                	addi	a1,a1,-2
   1243a:	8f91                	sub	a5,a5,a2
   1243c:	8f95                	sub	a5,a5,a3
   1243e:	00f59123          	sh	a5,2(a1)
   12442:	83c1                	srli	a5,a5,0x10
   12444:	0017f693          	andi	a3,a5,1
   12448:	fee513e3          	bne	a0,a4,1242e <esubm+0x8>
   1244c:	8082                	ret

000000000001244e <m16m>:
   1244e:	1101                	addi	sp,sp,-32
   12450:	6341                	lui	t1,0x10
   12452:	01858893          	addi	a7,a1,24
   12456:	00011b23          	sh	zero,22(sp)
   1245a:	00011c23          	sh	zero,24(sp)
   1245e:	0591                	addi	a1,a1,4
   12460:	0834                	addi	a3,sp,24
   12462:	137d                	addi	t1,t1,-1
   12464:	0008d703          	lhu	a4,0(a7)
   12468:	16f9                	addi	a3,a3,-2
   1246a:	18f9                	addi	a7,a7,-2
   1246c:	e705                	bnez	a4,12494 <m16m+0x46>
   1246e:	fe069f23          	sh	zero,-2(a3)
   12472:	ff1599e3          	bne	a1,a7,12464 <m16m+0x16>
   12476:	4791                	li	a5,4
   12478:	4769                	li	a4,26
   1247a:	00f105b3          	add	a1,sp,a5
   1247e:	0005d583          	lhu	a1,0(a1)
   12482:	00f606b3          	add	a3,a2,a5
   12486:	0789                	addi	a5,a5,2
   12488:	00b69023          	sh	a1,0(a3)
   1248c:	fee797e3          	bne	a5,a4,1247a <m16m+0x2c>
   12490:	6105                	addi	sp,sp,32
   12492:	8082                	ret
   12494:	02a70733          	mul	a4,a4,a0
   12498:	0026d803          	lhu	a6,2(a3)
   1249c:	006777b3          	and	a5,a4,t1
   124a0:	97c2                	add	a5,a5,a6
   124a2:	0107d813          	srli	a6,a5,0x10
   124a6:	00f69123          	sh	a5,2(a3)
   124aa:	01075793          	srli	a5,a4,0x10
   124ae:	0006d703          	lhu	a4,0(a3)
   124b2:	97ba                	add	a5,a5,a4
   124b4:	97c2                	add	a5,a5,a6
   124b6:	00f69023          	sh	a5,0(a3)
   124ba:	83c1                	srli	a5,a5,0x10
   124bc:	fef69f23          	sh	a5,-2(a3)
   124c0:	bf4d                	j	12472 <m16m+0x24>

00000000000124c2 <eisnan>:
   124c2:	01255783          	lhu	a5,18(a0)
   124c6:	fff7c793          	not	a5,a5
   124ca:	03179713          	slli	a4,a5,0x31
   124ce:	eb09                	bnez	a4,124e0 <eisnan+0x1e>
   124d0:	01250793          	addi	a5,a0,18
   124d4:	0509                	addi	a0,a0,2
   124d6:	ffe55703          	lhu	a4,-2(a0)
   124da:	e709                	bnez	a4,124e4 <eisnan+0x22>
   124dc:	fea79ce3          	bne	a5,a0,124d4 <eisnan+0x12>
   124e0:	4501                	li	a0,0
   124e2:	8082                	ret
   124e4:	4505                	li	a0,1
   124e6:	8082                	ret

00000000000124e8 <eisneg>:
   124e8:	1141                	addi	sp,sp,-16
   124ea:	e022                	sd	s0,0(sp)
   124ec:	e406                	sd	ra,8(sp)
   124ee:	842a                	mv	s0,a0
   124f0:	fd3ff0ef          	jal	ra,124c2 <eisnan>
   124f4:	e901                	bnez	a0,12504 <eisneg+0x1c>
   124f6:	01344503          	lbu	a0,19(s0)
   124fa:	811d                	srli	a0,a0,0x7
   124fc:	60a2                	ld	ra,8(sp)
   124fe:	6402                	ld	s0,0(sp)
   12500:	0141                	addi	sp,sp,16
   12502:	8082                	ret
   12504:	4501                	li	a0,0
   12506:	bfdd                	j	124fc <eisneg+0x14>

0000000000012508 <emovi>:
   12508:	01251783          	lh	a5,18(a0)
   1250c:	1101                	addi	sp,sp,-32
   1250e:	ec06                	sd	ra,24(sp)
   12510:	e822                	sd	s0,16(sp)
   12512:	e426                	sd	s1,8(sp)
   12514:	e04a                	sd	s2,0(sp)
   12516:	0407d963          	bgez	a5,12568 <emovi+0x60>
   1251a:	57fd                	li	a5,-1
   1251c:	00f59023          	sh	a5,0(a1)
   12520:	01255703          	lhu	a4,18(a0)
   12524:	67a1                	lui	a5,0x8
   12526:	17fd                	addi	a5,a5,-1
   12528:	8f7d                	and	a4,a4,a5
   1252a:	00e59123          	sh	a4,2(a1)
   1252e:	01050913          	addi	s2,a0,16
   12532:	04f71863          	bne	a4,a5,12582 <emovi+0x7a>
   12536:	842e                	mv	s0,a1
   12538:	84aa                	mv	s1,a0
   1253a:	f89ff0ef          	jal	ra,124c2 <eisnan>
   1253e:	c905                	beqz	a0,1256e <emovi+0x66>
   12540:	00640793          	addi	a5,s0,6
   12544:	00041223          	sh	zero,4(s0)
   12548:	ffc48513          	addi	a0,s1,-4
   1254c:	1979                	addi	s2,s2,-2
   1254e:	00295703          	lhu	a4,2(s2)
   12552:	0789                	addi	a5,a5,2
   12554:	fee79f23          	sh	a4,-2(a5) # 7ffe <_start-0x80b2>
   12558:	fea91ae3          	bne	s2,a0,1254c <emovi+0x44>
   1255c:	60e2                	ld	ra,24(sp)
   1255e:	6442                	ld	s0,16(sp)
   12560:	64a2                	ld	s1,8(sp)
   12562:	6902                	ld	s2,0(sp)
   12564:	6105                	addi	sp,sp,32
   12566:	8082                	ret
   12568:	00059023          	sh	zero,0(a1)
   1256c:	bf55                	j	12520 <emovi+0x18>
   1256e:	00440793          	addi	a5,s0,4
   12572:	01a40593          	addi	a1,s0,26
   12576:	0789                	addi	a5,a5,2
   12578:	fe079f23          	sh	zero,-2(a5)
   1257c:	feb79de3          	bne	a5,a1,12576 <emovi+0x6e>
   12580:	bff1                	j	1255c <emovi+0x54>
   12582:	00658793          	addi	a5,a1,6
   12586:	00059223          	sh	zero,4(a1)
   1258a:	1579                	addi	a0,a0,-2
   1258c:	1979                	addi	s2,s2,-2
   1258e:	00295703          	lhu	a4,2(s2)
   12592:	0789                	addi	a5,a5,2
   12594:	fee79f23          	sh	a4,-2(a5)
   12598:	fea91ae3          	bne	s2,a0,1258c <emovi+0x84>
   1259c:	00059c23          	sh	zero,24(a1)
   125a0:	bf75                	j	1255c <emovi+0x54>

00000000000125a2 <ecmp>:
   125a2:	711d                	addi	sp,sp,-96
   125a4:	e4a6                	sd	s1,72(sp)
   125a6:	e0ca                	sd	s2,64(sp)
   125a8:	ec86                	sd	ra,88(sp)
   125aa:	e8a2                	sd	s0,80(sp)
   125ac:	892a                	mv	s2,a0
   125ae:	84ae                	mv	s1,a1
   125b0:	f13ff0ef          	jal	ra,124c2 <eisnan>
   125b4:	e559                	bnez	a0,12642 <ecmp+0xa0>
   125b6:	8526                	mv	a0,s1
   125b8:	f0bff0ef          	jal	ra,124c2 <eisnan>
   125bc:	842a                	mv	s0,a0
   125be:	e151                	bnez	a0,12642 <ecmp+0xa0>
   125c0:	858a                	mv	a1,sp
   125c2:	854a                	mv	a0,s2
   125c4:	f45ff0ef          	jal	ra,12508 <emovi>
   125c8:	100c                	addi	a1,sp,32
   125ca:	8526                	mv	a0,s1
   125cc:	f3dff0ef          	jal	ra,12508 <emovi>
   125d0:	00015703          	lhu	a4,0(sp)
   125d4:	02015783          	lhu	a5,32(sp)
   125d8:	02e78c63          	beq	a5,a4,12610 <ecmp+0x6e>
   125dc:	4789                	li	a5,2
   125de:	46e1                	li	a3,24
   125e0:	00f10633          	add	a2,sp,a5
   125e4:	00065603          	lhu	a2,0(a2) # ffffffffffff8000 <__global_pointer$+0xfffffffffffdad98>
   125e8:	e205                	bnez	a2,12608 <ecmp+0x66>
   125ea:	1010                	addi	a2,sp,32
   125ec:	963e                	add	a2,a2,a5
   125ee:	00065603          	lhu	a2,0(a2)
   125f2:	ea19                	bnez	a2,12608 <ecmp+0x66>
   125f4:	0789                	addi	a5,a5,2
   125f6:	fed795e3          	bne	a5,a3,125e0 <ecmp+0x3e>
   125fa:	8522                	mv	a0,s0
   125fc:	60e6                	ld	ra,88(sp)
   125fe:	6446                	ld	s0,80(sp)
   12600:	64a6                	ld	s1,72(sp)
   12602:	6906                	ld	s2,64(sp)
   12604:	6125                	addi	sp,sp,96
   12606:	8082                	ret
   12608:	4405                	li	s0,1
   1260a:	db65                	beqz	a4,125fa <ecmp+0x58>
   1260c:	547d                	li	s0,-1
   1260e:	b7f5                	j	125fa <ecmp+0x58>
   12610:	4605                	li	a2,1
   12612:	c311                	beqz	a4,12616 <ecmp+0x74>
   12614:	567d                	li	a2,-1
   12616:	4781                	li	a5,0
   12618:	45e1                	li	a1,24
   1261a:	00f10733          	add	a4,sp,a5
   1261e:	00075683          	lhu	a3,0(a4)
   12622:	1018                	addi	a4,sp,32
   12624:	973e                	add	a4,a4,a5
   12626:	00075703          	lhu	a4,0(a4)
   1262a:	00e69663          	bne	a3,a4,12636 <ecmp+0x94>
   1262e:	0789                	addi	a5,a5,2
   12630:	feb795e3          	bne	a5,a1,1261a <ecmp+0x78>
   12634:	b7d9                	j	125fa <ecmp+0x58>
   12636:	8432                	mv	s0,a2
   12638:	fcd761e3          	bltu	a4,a3,125fa <ecmp+0x58>
   1263c:	40c0043b          	negw	s0,a2
   12640:	bf6d                	j	125fa <ecmp+0x58>
   12642:	5479                	li	s0,-2
   12644:	bf5d                	j	125fa <ecmp+0x58>

0000000000012646 <eisinf>:
   12646:	01255783          	lhu	a5,18(a0)
   1264a:	fff7c793          	not	a5,a5
   1264e:	03179713          	slli	a4,a5,0x31
   12652:	eb11                	bnez	a4,12666 <eisinf+0x20>
   12654:	1141                	addi	sp,sp,-16
   12656:	e406                	sd	ra,8(sp)
   12658:	e6bff0ef          	jal	ra,124c2 <eisnan>
   1265c:	60a2                	ld	ra,8(sp)
   1265e:	00153513          	seqz	a0,a0
   12662:	0141                	addi	sp,sp,16
   12664:	8082                	ret
   12666:	4501                	li	a0,0
   12668:	8082                	ret

000000000001266a <einfin.isra.2>:
   1266a:	01250793          	addi	a5,a0,18
   1266e:	0509                	addi	a0,a0,2
   12670:	fe051f23          	sh	zero,-2(a0)
   12674:	fef51de3          	bne	a0,a5,1266e <einfin.isra.2+0x4>
   12678:	00055783          	lhu	a5,0(a0)
   1267c:	6721                	lui	a4,0x8
   1267e:	177d                	addi	a4,a4,-1
   12680:	8fd9                	or	a5,a5,a4
   12682:	00f51023          	sh	a5,0(a0)
   12686:	8082                	ret

0000000000012688 <eshift.part.3>:
   12688:	7139                	addi	sp,sp,-64
   1268a:	f822                	sd	s0,48(sp)
   1268c:	ec4e                	sd	s3,24(sp)
   1268e:	fc06                	sd	ra,56(sp)
   12690:	f426                	sd	s1,40(sp)
   12692:	f04a                	sd	s2,32(sp)
   12694:	e852                	sd	s4,16(sp)
   12696:	e456                	sd	s5,8(sp)
   12698:	89aa                	mv	s3,a0
   1269a:	842e                	mv	s0,a1
   1269c:	0a05d963          	bgez	a1,1274e <eshift.part.3+0xc6>
   126a0:	40b00a3b          	negw	s4,a1
   126a4:	8952                	mv	s2,s4
   126a6:	4481                	li	s1,0
   126a8:	4abd                	li	s5,15
   126aa:	034ac763          	blt	s5,s4,126d8 <eshift.part.3+0x50>
   126ae:	0049591b          	srliw	s2,s2,0x4
   126b2:	55c1                	li	a1,-16
   126b4:	02b905bb          	mulw	a1,s2,a1
   126b8:	4a1d                	li	s4,7
   126ba:	4085893b          	subw	s2,a1,s0
   126be:	844a                	mv	s0,s2
   126c0:	032a4463          	blt	s4,s2,126e8 <eshift.part.3+0x60>
   126c4:	0034559b          	srliw	a1,s0,0x3
   126c8:	57e1                	li	a5,-8
   126ca:	02f585bb          	mulw	a1,a1,a5
   126ce:	9c2d                	addw	s0,s0,a1
   126d0:	e405                	bnez	s0,126f8 <eshift.part.3+0x70>
   126d2:	00903533          	snez	a0,s1
   126d6:	a09d                	j	1273c <eshift.part.3+0xb4>
   126d8:	0189d783          	lhu	a5,24(s3)
   126dc:	854e                	mv	a0,s3
   126de:	3a41                	addiw	s4,s4,-16
   126e0:	8cdd                	or	s1,s1,a5
   126e2:	cfbff0ef          	jal	ra,123dc <eshdn6>
   126e6:	b7d1                	j	126aa <eshift.part.3+0x22>
   126e8:	0189c783          	lbu	a5,24(s3)
   126ec:	854e                	mv	a0,s3
   126ee:	3961                	addiw	s2,s2,-8
   126f0:	8cdd                	or	s1,s1,a5
   126f2:	c89ff0ef          	jal	ra,1237a <eshdn8>
   126f6:	b7e9                	j	126c0 <eshift.part.3+0x38>
   126f8:	0189d783          	lhu	a5,24(s3)
   126fc:	854e                	mv	a0,s3
   126fe:	347d                	addiw	s0,s0,-1
   12700:	8b85                	andi	a5,a5,1
   12702:	8cdd                	or	s1,s1,a5
   12704:	bfdff0ef          	jal	ra,12300 <eshdn1>
   12708:	b7e1                	j	126d0 <eshift.part.3+0x48>
   1270a:	854e                	mv	a0,s3
   1270c:	cb5ff0ef          	jal	ra,123c0 <eshup6>
   12710:	34c1                	addiw	s1,s1,-16
   12712:	fe994ce3          	blt	s2,s1,1270a <eshift.part.3+0x82>
   12716:	0044559b          	srliw	a1,s0,0x4
   1271a:	57c1                	li	a5,-16
   1271c:	02f585bb          	mulw	a1,a1,a5
   12720:	491d                	li	s2,7
   12722:	00b404bb          	addw	s1,s0,a1
   12726:	8426                	mv	s0,s1
   12728:	02994663          	blt	s2,s1,12754 <eshift.part.3+0xcc>
   1272c:	0034559b          	srliw	a1,s0,0x3
   12730:	57e1                	li	a5,-8
   12732:	02f585bb          	mulw	a1,a1,a5
   12736:	9c2d                	addw	s0,s0,a1
   12738:	e01d                	bnez	s0,1275e <eshift.part.3+0xd6>
   1273a:	4501                	li	a0,0
   1273c:	70e2                	ld	ra,56(sp)
   1273e:	7442                	ld	s0,48(sp)
   12740:	74a2                	ld	s1,40(sp)
   12742:	7902                	ld	s2,32(sp)
   12744:	69e2                	ld	s3,24(sp)
   12746:	6a42                	ld	s4,16(sp)
   12748:	6aa2                	ld	s5,8(sp)
   1274a:	6121                	addi	sp,sp,64
   1274c:	8082                	ret
   1274e:	84ae                	mv	s1,a1
   12750:	493d                	li	s2,15
   12752:	b7c1                	j	12712 <eshift.part.3+0x8a>
   12754:	854e                	mv	a0,s3
   12756:	c4bff0ef          	jal	ra,123a0 <eshup8>
   1275a:	34e1                	addiw	s1,s1,-8
   1275c:	b7f1                	j	12728 <eshift.part.3+0xa0>
   1275e:	854e                	mv	a0,s3
   12760:	bd9ff0ef          	jal	ra,12338 <eshup1>
   12764:	347d                	addiw	s0,s0,-1
   12766:	bfc9                	j	12738 <eshift.part.3+0xb0>

0000000000012768 <enormlz>:
   12768:	00455783          	lhu	a5,4(a0)
   1276c:	1101                	addi	sp,sp,-32
   1276e:	e426                	sd	s1,8(sp)
   12770:	ec06                	sd	ra,24(sp)
   12772:	e822                	sd	s0,16(sp)
   12774:	e04a                	sd	s2,0(sp)
   12776:	84aa                	mv	s1,a0
   12778:	efb9                	bnez	a5,127d6 <enormlz+0x6e>
   1277a:	00651783          	lh	a5,6(a0)
   1277e:	4401                	li	s0,0
   12780:	0a000913          	li	s2,160
   12784:	0007df63          	bgez	a5,127a2 <enormlz+0x3a>
   12788:	8522                	mv	a0,s0
   1278a:	60e2                	ld	ra,24(sp)
   1278c:	6442                	ld	s0,16(sp)
   1278e:	64a2                	ld	s1,8(sp)
   12790:	6902                	ld	s2,0(sp)
   12792:	6105                	addi	sp,sp,32
   12794:	8082                	ret
   12796:	8526                	mv	a0,s1
   12798:	2441                	addiw	s0,s0,16
   1279a:	c27ff0ef          	jal	ra,123c0 <eshup6>
   1279e:	ff2405e3          	beq	s0,s2,12788 <enormlz+0x20>
   127a2:	0064d783          	lhu	a5,6(s1)
   127a6:	dbe5                	beqz	a5,12796 <enormlz+0x2e>
   127a8:	0064d783          	lhu	a5,6(s1)
   127ac:	f007f793          	andi	a5,a5,-256
   127b0:	cf91                	beqz	a5,127cc <enormlz+0x64>
   127b2:	0a000913          	li	s2,160
   127b6:	00649783          	lh	a5,6(s1)
   127ba:	fc07c7e3          	bltz	a5,12788 <enormlz+0x20>
   127be:	8526                	mv	a0,s1
   127c0:	2405                	addiw	s0,s0,1
   127c2:	b77ff0ef          	jal	ra,12338 <eshup1>
   127c6:	fe8958e3          	ble	s0,s2,127b6 <enormlz+0x4e>
   127ca:	bf7d                	j	12788 <enormlz+0x20>
   127cc:	8526                	mv	a0,s1
   127ce:	bd3ff0ef          	jal	ra,123a0 <eshup8>
   127d2:	2421                	addiw	s0,s0,8
   127d4:	bfd1                	j	127a8 <enormlz+0x40>
   127d6:	f007f793          	andi	a5,a5,-256
   127da:	4401                	li	s0,0
   127dc:	c781                	beqz	a5,127e4 <enormlz+0x7c>
   127de:	b9dff0ef          	jal	ra,1237a <eshdn8>
   127e2:	5461                	li	s0,-8
   127e4:	f7000913          	li	s2,-144
   127e8:	a039                	j	127f6 <enormlz+0x8e>
   127ea:	8526                	mv	a0,s1
   127ec:	347d                	addiw	s0,s0,-1
   127ee:	b13ff0ef          	jal	ra,12300 <eshdn1>
   127f2:	f9244be3          	blt	s0,s2,12788 <enormlz+0x20>
   127f6:	0044d783          	lhu	a5,4(s1)
   127fa:	fbe5                	bnez	a5,127ea <enormlz+0x82>
   127fc:	b771                	j	12788 <enormlz+0x20>

00000000000127fe <enan.constprop.12>:
   127fe:	01050793          	addi	a5,a0,16
   12802:	0509                	addi	a0,a0,2
   12804:	fe051f23          	sh	zero,-2(a0)
   12808:	fef51de3          	bne	a0,a5,12802 <enan.constprop.12+0x4>
   1280c:	77f1                	lui	a5,0xffffc
   1280e:	00f51023          	sh	a5,0(a0)
   12812:	67a1                	lui	a5,0x8
   12814:	17fd                	addi	a5,a5,-1
   12816:	00f51123          	sh	a5,2(a0)
   1281a:	8082                	ret

000000000001281c <emovo.isra.6>:
   1281c:	872a                	mv	a4,a0
   1281e:	00075683          	lhu	a3,0(a4) # 8000 <_start-0x80b0>
   12822:	852e                	mv	a0,a1
   12824:	00275783          	lhu	a5,2(a4)
   12828:	c299                	beqz	a3,1282e <emovo.isra.6+0x12>
   1282a:	76e1                	lui	a3,0xffff8
   1282c:	8fd5                	or	a5,a5,a3
   1282e:	00f51923          	sh	a5,18(a0)
   12832:	00275603          	lhu	a2,2(a4)
   12836:	66a1                	lui	a3,0x8
   12838:	16fd                	addi	a3,a3,-1
   1283a:	00670793          	addi	a5,a4,6
   1283e:	00d61b63          	bne	a2,a3,12854 <emovo.isra.6+0x38>
   12842:	0769                	addi	a4,a4,26
   12844:	0007d683          	lhu	a3,0(a5) # 8000 <_start-0x80b0>
   12848:	e28d                	bnez	a3,1286a <emovo.isra.6+0x4e>
   1284a:	0789                	addi	a5,a5,2
   1284c:	fee79ce3          	bne	a5,a4,12844 <emovo.isra.6+0x28>
   12850:	e1bff06f          	j	1266a <einfin.isra.2>
   12854:	0541                	addi	a0,a0,16
   12856:	0761                	addi	a4,a4,24
   12858:	0789                	addi	a5,a5,2
   1285a:	ffe7d683          	lhu	a3,-2(a5)
   1285e:	1579                	addi	a0,a0,-2
   12860:	00d51123          	sh	a3,2(a0)
   12864:	fee79ae3          	bne	a5,a4,12858 <emovo.isra.6+0x3c>
   12868:	8082                	ret
   1286a:	f95ff06f          	j	127fe <enan.constprop.12>

000000000001286e <e113toe.isra.8>:
   1286e:	7139                	addi	sp,sp,-64
   12870:	f426                	sd	s1,40(sp)
   12872:	84aa                	mv	s1,a0
   12874:	850a                	mv	a0,sp
   12876:	f822                	sd	s0,48(sp)
   12878:	fc06                	sd	ra,56(sp)
   1287a:	842e                	mv	s0,a1
   1287c:	a2fff0ef          	jal	ra,122aa <ecleaz>
   12880:	00e4d703          	lhu	a4,14(s1)
   12884:	0107179b          	slliw	a5,a4,0x10
   12888:	4107d79b          	sraiw	a5,a5,0x10
   1288c:	0207c763          	bltz	a5,128ba <e113toe.isra.8+0x4c>
   12890:	00011023          	sh	zero,0(sp)
   12894:	66a1                	lui	a3,0x8
   12896:	16fd                	addi	a3,a3,-1
   12898:	8f75                	and	a4,a4,a3
   1289a:	00e48793          	addi	a5,s1,14
   1289e:	04d71a63          	bne	a4,a3,128f2 <e113toe.isra.8+0x84>
   128a2:	8726                	mv	a4,s1
   128a4:	00075683          	lhu	a3,0(a4)
   128a8:	ce89                	beqz	a3,128c2 <e113toe.isra.8+0x54>
   128aa:	8522                	mv	a0,s0
   128ac:	f53ff0ef          	jal	ra,127fe <enan.constprop.12>
   128b0:	70e2                	ld	ra,56(sp)
   128b2:	7442                	ld	s0,48(sp)
   128b4:	74a2                	ld	s1,40(sp)
   128b6:	6121                	addi	sp,sp,64
   128b8:	8082                	ret
   128ba:	57fd                	li	a5,-1
   128bc:	00f11023          	sh	a5,0(sp)
   128c0:	bfd1                	j	12894 <e113toe.isra.8+0x26>
   128c2:	0709                	addi	a4,a4,2
   128c4:	fee790e3          	bne	a5,a4,128a4 <e113toe.isra.8+0x36>
   128c8:	8522                	mv	a0,s0
   128ca:	9bbff0ef          	jal	ra,12284 <eclear>
   128ce:	8522                	mv	a0,s0
   128d0:	d9bff0ef          	jal	ra,1266a <einfin.isra.2>
   128d4:	00e49783          	lh	a5,14(s1)
   128d8:	fc07dce3          	bgez	a5,128b0 <e113toe.isra.8+0x42>
   128dc:	8522                	mv	a0,s0
   128de:	be5ff0ef          	jal	ra,124c2 <eisnan>
   128e2:	f579                	bnez	a0,128b0 <e113toe.isra.8+0x42>
   128e4:	01245783          	lhu	a5,18(s0)
   128e8:	7761                	lui	a4,0xffff8
   128ea:	8fb9                	xor	a5,a5,a4
   128ec:	00f41923          	sh	a5,18(s0)
   128f0:	b7c1                	j	128b0 <e113toe.isra.8+0x42>
   128f2:	00e11123          	sh	a4,2(sp)
   128f6:	868a                	mv	a3,sp
   128f8:	17f9                	addi	a5,a5,-2
   128fa:	0007d603          	lhu	a2,0(a5)
   128fe:	0689                	addi	a3,a3,2
   12900:	00c69223          	sh	a2,4(a3) # 8004 <_start-0x80ac>
   12904:	fef49ae3          	bne	s1,a5,128f8 <e113toe.isra.8+0x8a>
   12908:	eb01                	bnez	a4,12918 <e113toe.isra.8+0xaa>
   1290a:	00011223          	sh	zero,4(sp)
   1290e:	85a2                	mv	a1,s0
   12910:	850a                	mv	a0,sp
   12912:	f0bff0ef          	jal	ra,1281c <emovo.isra.6>
   12916:	bf69                	j	128b0 <e113toe.isra.8+0x42>
   12918:	4785                	li	a5,1
   1291a:	55fd                	li	a1,-1
   1291c:	850a                	mv	a0,sp
   1291e:	00f11223          	sh	a5,4(sp)
   12922:	d67ff0ef          	jal	ra,12688 <eshift.part.3>
   12926:	b7e5                	j	1290e <e113toe.isra.8+0xa0>

0000000000012928 <emdnorm>:
   12928:	7139                	addi	sp,sp,-64
   1292a:	f822                	sd	s0,48(sp)
   1292c:	f426                	sd	s1,40(sp)
   1292e:	f04a                	sd	s2,32(sp)
   12930:	ec4e                	sd	s3,24(sp)
   12932:	e852                	sd	s4,16(sp)
   12934:	e456                	sd	s5,8(sp)
   12936:	8936                	mv	s2,a3
   12938:	843e                	mv	s0,a5
   1293a:	fc06                	sd	ra,56(sp)
   1293c:	84aa                	mv	s1,a0
   1293e:	89ae                	mv	s3,a1
   12940:	8a32                	mv	s4,a2
   12942:	8aba                	mv	s5,a4
   12944:	e25ff0ef          	jal	ra,12768 <enormlz>
   12948:	09000793          	li	a5,144
   1294c:	40a90933          	sub	s2,s2,a0
   12950:	02a7d763          	ble	a0,a5,1297e <emdnorm+0x56>
   12954:	67a1                	lui	a5,0x8
   12956:	17f9                	addi	a5,a5,-2
   12958:	2327c663          	blt	a5,s2,12b84 <emdnorm+0x25c>
   1295c:	00248793          	addi	a5,s1,2
   12960:	04e9                	addi	s1,s1,26
   12962:	0789                	addi	a5,a5,2
   12964:	fe079f23          	sh	zero,-2(a5) # 7ffe <_start-0x80b2>
   12968:	fe979de3          	bne	a5,s1,12962 <emdnorm+0x3a>
   1296c:	70e2                	ld	ra,56(sp)
   1296e:	7442                	ld	s0,48(sp)
   12970:	74a2                	ld	s1,40(sp)
   12972:	7902                	ld	s2,32(sp)
   12974:	69e2                	ld	s3,24(sp)
   12976:	6a42                	ld	s4,16(sp)
   12978:	6aa2                	ld	s5,8(sp)
   1297a:	6121                	addi	sp,sp,64
   1297c:	8082                	ret
   1297e:	00095d63          	bgez	s2,12998 <emdnorm+0x70>
   12982:	f7000793          	li	a5,-144
   12986:	0ef94a63          	blt	s2,a5,12a7a <emdnorm+0x152>
   1298a:	0009059b          	sext.w	a1,s2
   1298e:	8526                	mv	a0,s1
   12990:	cf9ff0ef          	jal	ra,12688 <eshift.part.3>
   12994:	0e051c63          	bnez	a0,12a8c <emdnorm+0x164>
   12998:	1a0a8a63          	beqz	s5,12b4c <emdnorm+0x224>
   1299c:	4058                	lw	a4,4(s0)
   1299e:	401c                	lw	a5,0(s0)
   129a0:	04f70863          	beq	a4,a5,129f0 <emdnorm+0xc8>
   129a4:	01a40513          	addi	a0,s0,26
   129a8:	903ff0ef          	jal	ra,122aa <ecleaz>
   129ac:	405c                	lw	a5,4(s0)
   129ae:	03800713          	li	a4,56
   129b2:	10e78d63          	beq	a5,a4,12acc <emdnorm+0x1a4>
   129b6:	0cf74d63          	blt	a4,a5,12a90 <emdnorm+0x168>
   129ba:	4761                	li	a4,24
   129bc:	12e78e63          	beq	a5,a4,12af8 <emdnorm+0x1d0>
   129c0:	03500713          	li	a4,53
   129c4:	12e78163          	beq	a5,a4,12ae6 <emdnorm+0x1be>
   129c8:	80010737          	lui	a4,0x80010
   129cc:	377d                	addiw	a4,a4,-1
   129ce:	c858                	sw	a4,20(s0)
   129d0:	4705                	li	a4,1
   129d2:	00e41c23          	sh	a4,24(s0)
   129d6:	472d                	li	a4,11
   129d8:	1702                	slli	a4,a4,0x20
   129da:	0731                	addi	a4,a4,12
   129dc:	e418                	sd	a4,8(s0)
   129de:	4458                	lw	a4,12(s0)
   129e0:	01845683          	lhu	a3,24(s0)
   129e4:	0721                	addi	a4,a4,8
   129e6:	0706                	slli	a4,a4,0x1
   129e8:	9722                	add	a4,a4,s0
   129ea:	00d71523          	sh	a3,10(a4) # ffffffff8001000a <__global_pointer$+0xffffffff7fff2da2>
   129ee:	c01c                	sw	a5,0(s0)
   129f0:	01204f63          	bgtz	s2,12a0e <emdnorm+0xe6>
   129f4:	4058                	lw	a4,4(s0)
   129f6:	09000793          	li	a5,144
   129fa:	00f70a63          	beq	a4,a5,12a0e <emdnorm+0xe6>
   129fe:	0184d783          	lhu	a5,24(s1)
   12a02:	8526                	mv	a0,s1
   12a04:	8b85                	andi	a5,a5,1
   12a06:	00f9e9b3          	or	s3,s3,a5
   12a0a:	8f7ff0ef          	jal	ra,12300 <eshdn1>
   12a0e:	4414                	lw	a3,8(s0)
   12a10:	01445583          	lhu	a1,20(s0)
   12a14:	4048                	lw	a0,4(s0)
   12a16:	00169793          	slli	a5,a3,0x1
   12a1a:	00f48633          	add	a2,s1,a5
   12a1e:	00065703          	lhu	a4,0(a2)
   12a22:	8f6d                	and	a4,a4,a1
   12a24:	08f00593          	li	a1,143
   12a28:	00a5c863          	blt	a1,a0,12a38 <emdnorm+0x110>
   12a2c:	0789                	addi	a5,a5,2
   12a2e:	2685                	addiw	a3,a3,1
   12a30:	97a6                	add	a5,a5,s1
   12a32:	45b1                	li	a1,12
   12a34:	0cd5df63          	ble	a3,a1,12b12 <emdnorm+0x1ea>
   12a38:	01445783          	lhu	a5,20(s0)
   12a3c:	00065683          	lhu	a3,0(a2)
   12a40:	fff7c793          	not	a5,a5
   12a44:	8ff5                	and	a5,a5,a3
   12a46:	00f61023          	sh	a5,0(a2)
   12a4a:	01645783          	lhu	a5,22(s0)
   12a4e:	00e7f6b3          	and	a3,a5,a4
   12a52:	cee1                	beqz	a3,12b2a <emdnorm+0x202>
   12a54:	00e79d63          	bne	a5,a4,12a6e <emdnorm+0x146>
   12a58:	0c099763          	bnez	s3,12b26 <emdnorm+0x1fe>
   12a5c:	445c                	lw	a5,12(s0)
   12a5e:	01845703          	lhu	a4,24(s0)
   12a62:	0786                	slli	a5,a5,0x1
   12a64:	97a6                	add	a5,a5,s1
   12a66:	0007d783          	lhu	a5,0(a5)
   12a6a:	8ff9                	and	a5,a5,a4
   12a6c:	cfdd                	beqz	a5,12b2a <emdnorm+0x202>
   12a6e:	85a6                	mv	a1,s1
   12a70:	01a40513          	addi	a0,s0,26
   12a74:	98bff0ef          	jal	ra,123fe <eaddm>
   12a78:	a84d                	j	12b2a <emdnorm+0x202>
   12a7a:	00248793          	addi	a5,s1,2
   12a7e:	04e9                	addi	s1,s1,26
   12a80:	0789                	addi	a5,a5,2
   12a82:	fe079f23          	sh	zero,-2(a5)
   12a86:	fe979de3          	bne	a5,s1,12a80 <emdnorm+0x158>
   12a8a:	b5cd                	j	1296c <emdnorm+0x44>
   12a8c:	4985                	li	s3,1
   12a8e:	b729                	j	12998 <emdnorm+0x70>
   12a90:	04000713          	li	a4,64
   12a94:	02e78163          	beq	a5,a4,12ab6 <emdnorm+0x18e>
   12a98:	07100713          	li	a4,113
   12a9c:	f2e796e3          	bne	a5,a4,129c8 <emdnorm+0xa0>
   12aa0:	40008737          	lui	a4,0x40008
   12aa4:	377d                	addiw	a4,a4,-1
   12aa6:	c858                	sw	a4,20(s0)
   12aa8:	7761                	lui	a4,0xffff8
   12aaa:	00e41c23          	sh	a4,24(s0)
   12aae:	4729                	li	a4,10
   12ab0:	1702                	slli	a4,a4,0x20
   12ab2:	0729                	addi	a4,a4,10
   12ab4:	b725                	j	129dc <emdnorm+0xb4>
   12ab6:	80010737          	lui	a4,0x80010
   12aba:	377d                	addiw	a4,a4,-1
   12abc:	c858                	sw	a4,20(s0)
   12abe:	4705                	li	a4,1
   12ac0:	00e41c23          	sh	a4,24(s0)
   12ac4:	470d                	li	a4,3
   12ac6:	1706                	slli	a4,a4,0x21
   12ac8:	071d                	addi	a4,a4,7
   12aca:	bf09                	j	129dc <emdnorm+0xb4>
   12acc:	00800737          	lui	a4,0x800
   12ad0:	0ff7071b          	addiw	a4,a4,255
   12ad4:	c858                	sw	a4,20(s0)
   12ad6:	10000713          	li	a4,256
   12ada:	00e41c23          	sh	a4,24(s0)
   12ade:	4719                	li	a4,6
   12ae0:	1702                	slli	a4,a4,0x20
   12ae2:	0719                	addi	a4,a4,6
   12ae4:	bde5                	j	129dc <emdnorm+0xb4>
   12ae6:	04000737          	lui	a4,0x4000
   12aea:	7ff7071b          	addiw	a4,a4,2047
   12aee:	c858                	sw	a4,20(s0)
   12af0:	6705                	lui	a4,0x1
   12af2:	8007071b          	addiw	a4,a4,-2048
   12af6:	b7d5                	j	12ada <emdnorm+0x1b2>
   12af8:	00800737          	lui	a4,0x800
   12afc:	0ff7071b          	addiw	a4,a4,255
   12b00:	c858                	sw	a4,20(s0)
   12b02:	10000713          	li	a4,256
   12b06:	00e41c23          	sh	a4,24(s0)
   12b0a:	4711                	li	a4,4
   12b0c:	1702                	slli	a4,a4,0x20
   12b0e:	0711                	addi	a4,a4,4
   12b10:	b5f1                	j	129dc <emdnorm+0xb4>
   12b12:	0007d503          	lhu	a0,0(a5)
   12b16:	c119                	beqz	a0,12b1c <emdnorm+0x1f4>
   12b18:	00176713          	ori	a4,a4,1
   12b1c:	00079023          	sh	zero,0(a5)
   12b20:	2685                	addiw	a3,a3,1
   12b22:	0789                	addi	a5,a5,2
   12b24:	bf01                	j	12a34 <emdnorm+0x10c>
   12b26:	f40a04e3          	beqz	s4,12a6e <emdnorm+0x146>
   12b2a:	01204a63          	bgtz	s2,12b3e <emdnorm+0x216>
   12b2e:	4058                	lw	a4,4(s0)
   12b30:	09000793          	li	a5,144
   12b34:	00f70563          	beq	a4,a5,12b3e <emdnorm+0x216>
   12b38:	8526                	mv	a0,s1
   12b3a:	ffeff0ef          	jal	ra,12338 <eshup1>
   12b3e:	0044d783          	lhu	a5,4(s1)
   12b42:	c789                	beqz	a5,12b4c <emdnorm+0x224>
   12b44:	8526                	mv	a0,s1
   12b46:	fbaff0ef          	jal	ra,12300 <eshdn1>
   12b4a:	0905                	addi	s2,s2,1
   12b4c:	67a1                	lui	a5,0x8
   12b4e:	00049c23          	sh	zero,24(s1)
   12b52:	17f9                	addi	a5,a5,-2
   12b54:	0327d063          	ble	s2,a5,12b74 <emdnorm+0x24c>
   12b58:	77e1                	lui	a5,0xffff8
   12b5a:	fff7c793          	not	a5,a5
   12b5e:	00f49123          	sh	a5,2(s1)
   12b62:	00448793          	addi	a5,s1,4
   12b66:	04e1                	addi	s1,s1,24
   12b68:	00079023          	sh	zero,0(a5) # ffffffffffff8000 <__global_pointer$+0xfffffffffffdad98>
   12b6c:	0789                	addi	a5,a5,2
   12b6e:	fef49de3          	bne	s1,a5,12b68 <emdnorm+0x240>
   12b72:	bbed                	j	1296c <emdnorm+0x44>
   12b74:	00095563          	bgez	s2,12b7e <emdnorm+0x256>
   12b78:	00049123          	sh	zero,2(s1)
   12b7c:	bbc5                	j	1296c <emdnorm+0x44>
   12b7e:	01249123          	sh	s2,2(s1)
   12b82:	b3ed                	j	1296c <emdnorm+0x44>
   12b84:	e00a9ce3          	bnez	s5,1299c <emdnorm+0x74>
   12b88:	00049c23          	sh	zero,24(s1)
   12b8c:	b7f1                	j	12b58 <emdnorm+0x230>

0000000000012b8e <eiremain>:
   12b8e:	7139                	addi	sp,sp,-64
   12b90:	e852                	sd	s4,16(sp)
   12b92:	00255a03          	lhu	s4,2(a0)
   12b96:	f822                	sd	s0,48(sp)
   12b98:	842e                	mv	s0,a1
   12b9a:	fc06                	sd	ra,56(sp)
   12b9c:	f426                	sd	s1,40(sp)
   12b9e:	f04a                	sd	s2,32(sp)
   12ba0:	e456                	sd	s5,8(sp)
   12ba2:	e05a                	sd	s6,0(sp)
   12ba4:	8932                	mv	s2,a2
   12ba6:	03460b13          	addi	s6,a2,52
   12baa:	ec4e                	sd	s3,24(sp)
   12bac:	8aaa                	mv	s5,a0
   12bae:	bbbff0ef          	jal	ra,12768 <enormlz>
   12bb2:	00245483          	lhu	s1,2(s0)
   12bb6:	40aa0a33          	sub	s4,s4,a0
   12bba:	8522                	mv	a0,s0
   12bbc:	badff0ef          	jal	ra,12768 <enormlz>
   12bc0:	8c89                	sub	s1,s1,a0
   12bc2:	855a                	mv	a0,s6
   12bc4:	ee6ff0ef          	jal	ra,122aa <ecleaz>
   12bc8:	0344d363          	ble	s4,s1,12bee <eiremain+0x60>
   12bcc:	8522                	mv	a0,s0
   12bce:	7442                	ld	s0,48(sp)
   12bd0:	70e2                	ld	ra,56(sp)
   12bd2:	69e2                	ld	s3,24(sp)
   12bd4:	6a42                	ld	s4,16(sp)
   12bd6:	6aa2                	ld	s5,8(sp)
   12bd8:	6b02                	ld	s6,0(sp)
   12bda:	87ca                	mv	a5,s2
   12bdc:	86a6                	mv	a3,s1
   12bde:	7902                	ld	s2,32(sp)
   12be0:	74a2                	ld	s1,40(sp)
   12be2:	4701                	li	a4,0
   12be4:	4601                	li	a2,0
   12be6:	4581                	li	a1,0
   12be8:	6121                	addi	sp,sp,64
   12bea:	d3fff06f          	j	12928 <emdnorm>
   12bee:	85a2                	mv	a1,s0
   12bf0:	8556                	mv	a0,s5
   12bf2:	ee4ff0ef          	jal	ra,122d6 <ecmpm>
   12bf6:	4981                	li	s3,0
   12bf8:	00a04763          	bgtz	a0,12c06 <eiremain+0x78>
   12bfc:	85a2                	mv	a1,s0
   12bfe:	8556                	mv	a0,s5
   12c00:	827ff0ef          	jal	ra,12426 <esubm>
   12c04:	4985                	li	s3,1
   12c06:	855a                	mv	a0,s6
   12c08:	f30ff0ef          	jal	ra,12338 <eshup1>
   12c0c:	04c95783          	lhu	a5,76(s2)
   12c10:	8522                	mv	a0,s0
   12c12:	14fd                	addi	s1,s1,-1
   12c14:	00f9e9b3          	or	s3,s3,a5
   12c18:	05391623          	sh	s3,76(s2)
   12c1c:	f1cff0ef          	jal	ra,12338 <eshup1>
   12c20:	b765                	j	12bc8 <eiremain+0x3a>

0000000000012c22 <emul>:
   12c22:	7131                	addi	sp,sp,-192
   12c24:	f922                	sd	s0,176(sp)
   12c26:	f526                	sd	s1,168(sp)
   12c28:	f14a                	sd	s2,160(sp)
   12c2a:	ed4e                	sd	s3,152(sp)
   12c2c:	fd06                	sd	ra,184(sp)
   12c2e:	e952                	sd	s4,144(sp)
   12c30:	e556                	sd	s5,136(sp)
   12c32:	e15a                	sd	s6,128(sp)
   12c34:	fcde                	sd	s7,120(sp)
   12c36:	f8e2                	sd	s8,112(sp)
   12c38:	f4e6                	sd	s9,104(sp)
   12c3a:	84aa                	mv	s1,a0
   12c3c:	842e                	mv	s0,a1
   12c3e:	8932                	mv	s2,a2
   12c40:	89b6                	mv	s3,a3
   12c42:	881ff0ef          	jal	ra,124c2 <eisnan>
   12c46:	c115                	beqz	a0,12c6a <emul+0x48>
   12c48:	85ca                	mv	a1,s2
   12c4a:	8526                	mv	a0,s1
   12c4c:	e48ff0ef          	jal	ra,12294 <emov>
   12c50:	70ea                	ld	ra,184(sp)
   12c52:	744a                	ld	s0,176(sp)
   12c54:	74aa                	ld	s1,168(sp)
   12c56:	790a                	ld	s2,160(sp)
   12c58:	69ea                	ld	s3,152(sp)
   12c5a:	6a4a                	ld	s4,144(sp)
   12c5c:	6aaa                	ld	s5,136(sp)
   12c5e:	6b0a                	ld	s6,128(sp)
   12c60:	7be6                	ld	s7,120(sp)
   12c62:	7c46                	ld	s8,112(sp)
   12c64:	7ca6                	ld	s9,104(sp)
   12c66:	6129                	addi	sp,sp,192
   12c68:	8082                	ret
   12c6a:	8522                	mv	a0,s0
   12c6c:	857ff0ef          	jal	ra,124c2 <eisnan>
   12c70:	c501                	beqz	a0,12c78 <emul+0x56>
   12c72:	85ca                	mv	a1,s2
   12c74:	8522                	mv	a0,s0
   12c76:	bfd9                	j	12c4c <emul+0x2a>
   12c78:	8526                	mv	a0,s1
   12c7a:	9cdff0ef          	jal	ra,12646 <eisinf>
   12c7e:	e521                	bnez	a0,12cc6 <emul+0xa4>
   12c80:	8522                	mv	a0,s0
   12c82:	9c5ff0ef          	jal	ra,12646 <eisinf>
   12c86:	c901                	beqz	a0,12c96 <emul+0x74>
   12c88:	65e9                	lui	a1,0x1a
   12c8a:	e7858593          	addi	a1,a1,-392 # 19e78 <ezero>
   12c8e:	8526                	mv	a0,s1
   12c90:	913ff0ef          	jal	ra,125a2 <ecmp>
   12c94:	c121                	beqz	a0,12cd4 <emul+0xb2>
   12c96:	8526                	mv	a0,s1
   12c98:	9afff0ef          	jal	ra,12646 <eisinf>
   12c9c:	e509                	bnez	a0,12ca6 <emul+0x84>
   12c9e:	8522                	mv	a0,s0
   12ca0:	9a7ff0ef          	jal	ra,12646 <eisinf>
   12ca4:	cd1d                	beqz	a0,12ce2 <emul+0xc0>
   12ca6:	8526                	mv	a0,s1
   12ca8:	841ff0ef          	jal	ra,124e8 <eisneg>
   12cac:	84aa                	mv	s1,a0
   12cae:	8522                	mv	a0,s0
   12cb0:	839ff0ef          	jal	ra,124e8 <eisneg>
   12cb4:	02a48463          	beq	s1,a0,12cdc <emul+0xba>
   12cb8:	77e1                	lui	a5,0xffff8
   12cba:	00f91923          	sh	a5,18(s2)
   12cbe:	854a                	mv	a0,s2
   12cc0:	9abff0ef          	jal	ra,1266a <einfin.isra.2>
   12cc4:	b771                	j	12c50 <emul+0x2e>
   12cc6:	65e9                	lui	a1,0x1a
   12cc8:	e7858593          	addi	a1,a1,-392 # 19e78 <ezero>
   12ccc:	8522                	mv	a0,s0
   12cce:	8d5ff0ef          	jal	ra,125a2 <ecmp>
   12cd2:	f55d                	bnez	a0,12c80 <emul+0x5e>
   12cd4:	854a                	mv	a0,s2
   12cd6:	b29ff0ef          	jal	ra,127fe <enan.constprop.12>
   12cda:	bf9d                	j	12c50 <emul+0x2e>
   12cdc:	00091923          	sh	zero,18(s2)
   12ce0:	bff9                	j	12cbe <emul+0x9c>
   12ce2:	8526                	mv	a0,s1
   12ce4:	858a                	mv	a1,sp
   12ce6:	823ff0ef          	jal	ra,12508 <emovi>
   12cea:	8522                	mv	a0,s0
   12cec:	100c                	addi	a1,sp,32
   12cee:	81bff0ef          	jal	ra,12508 <emovi>
   12cf2:	00215403          	lhu	s0,2(sp)
   12cf6:	02215483          	lhu	s1,34(sp)
   12cfa:	ec09                	bnez	s0,12d14 <emul+0xf2>
   12cfc:	4781                	li	a5,0
   12cfe:	4759                	li	a4,22
   12d00:	00f106b3          	add	a3,sp,a5
   12d04:	0026d683          	lhu	a3,2(a3)
   12d08:	c6e9                	beqz	a3,12dd2 <emul+0x1b0>
   12d0a:	850a                	mv	a0,sp
   12d0c:	a5dff0ef          	jal	ra,12768 <enormlz>
   12d10:	40a00433          	neg	s0,a0
   12d14:	02215783          	lhu	a5,34(sp)
   12d18:	8c26                	mv	s8,s1
   12d1a:	ef81                	bnez	a5,12d32 <emul+0x110>
   12d1c:	4759                	li	a4,22
   12d1e:	1014                	addi	a3,sp,32
   12d20:	96be                	add	a3,a3,a5
   12d22:	0026d683          	lhu	a3,2(a3)
   12d26:	cecd                	beqz	a3,12de0 <emul+0x1be>
   12d28:	1008                	addi	a0,sp,32
   12d2a:	a3fff0ef          	jal	ra,12768 <enormlz>
   12d2e:	40a48c33          	sub	s8,s1,a0
   12d32:	02015783          	lhu	a5,32(sp)
   12d36:	03498b93          	addi	s7,s3,52
   12d3a:	03898493          	addi	s1,s3,56
   12d3e:	02f99a23          	sh	a5,52(s3)
   12d42:	02215783          	lhu	a5,34(sp)
   12d46:	8a5e                	mv	s4,s7
   12d48:	02f99b23          	sh	a5,54(s3)
   12d4c:	04e98793          	addi	a5,s3,78
   12d50:	00049023          	sh	zero,0(s1)
   12d54:	0489                	addi	s1,s1,2
   12d56:	fe979de3          	bne	a5,s1,12d50 <emul+0x12e>
   12d5a:	4a81                	li	s5,0
   12d5c:	4b01                	li	s6,0
   12d5e:	5cb1                	li	s9,-20
   12d60:	015107b3          	add	a5,sp,s5
   12d64:	0187d503          	lhu	a0,24(a5) # ffffffffffff8018 <__global_pointer$+0xfffffffffffdadb0>
   12d68:	c909                	beqz	a0,12d7a <emul+0x158>
   12d6a:	100c                	addi	a1,sp,32
   12d6c:	0090                	addi	a2,sp,64
   12d6e:	ee0ff0ef          	jal	ra,1244e <m16m>
   12d72:	85de                	mv	a1,s7
   12d74:	0088                	addi	a0,sp,64
   12d76:	e88ff0ef          	jal	ra,123fe <eaddm>
   12d7a:	04c9d783          	lhu	a5,76(s3)
   12d7e:	855e                	mv	a0,s7
   12d80:	1af9                	addi	s5,s5,-2
   12d82:	00fb6b33          	or	s6,s6,a5
   12d86:	e56ff0ef          	jal	ra,123dc <eshdn6>
   12d8a:	fd9a9be3          	bne	s5,s9,12d60 <emul+0x13e>
   12d8e:	101c                	addi	a5,sp,32
   12d90:	000a5703          	lhu	a4,0(s4)
   12d94:	0a09                	addi	s4,s4,2
   12d96:	0789                	addi	a5,a5,2
   12d98:	fee79f23          	sh	a4,-2(a5)
   12d9c:	fe9a1ae3          	bne	s4,s1,12d90 <emul+0x16e>
   12da0:	76f1                	lui	a3,0xffffc
   12da2:	9462                	add	s0,s0,s8
   12da4:	0689                	addi	a3,a3,2
   12da6:	87ce                	mv	a5,s3
   12da8:	04000713          	li	a4,64
   12dac:	96a2                	add	a3,a3,s0
   12dae:	4601                	li	a2,0
   12db0:	85da                	mv	a1,s6
   12db2:	1008                	addi	a0,sp,32
   12db4:	b75ff0ef          	jal	ra,12928 <emdnorm>
   12db8:	00015703          	lhu	a4,0(sp)
   12dbc:	02015783          	lhu	a5,32(sp)
   12dc0:	02f71463          	bne	a4,a5,12de8 <emul+0x1c6>
   12dc4:	02011023          	sh	zero,32(sp)
   12dc8:	85ca                	mv	a1,s2
   12dca:	1008                	addi	a0,sp,32
   12dcc:	a51ff0ef          	jal	ra,1281c <emovo.isra.6>
   12dd0:	b541                	j	12c50 <emul+0x2e>
   12dd2:	0789                	addi	a5,a5,2
   12dd4:	f2e796e3          	bne	a5,a4,12d00 <emul+0xde>
   12dd8:	854a                	mv	a0,s2
   12dda:	caaff0ef          	jal	ra,12284 <eclear>
   12dde:	bd8d                	j	12c50 <emul+0x2e>
   12de0:	0789                	addi	a5,a5,2
   12de2:	f2e79ee3          	bne	a5,a4,12d1e <emul+0xfc>
   12de6:	bfcd                	j	12dd8 <emul+0x1b6>
   12de8:	57fd                	li	a5,-1
   12dea:	02f11023          	sh	a5,32(sp)
   12dee:	bfe9                	j	12dc8 <emul+0x1a6>

0000000000012df0 <ediv>:
   12df0:	7131                	addi	sp,sp,-192
   12df2:	f922                	sd	s0,176(sp)
   12df4:	f526                	sd	s1,168(sp)
   12df6:	f14a                	sd	s2,160(sp)
   12df8:	e556                	sd	s5,136(sp)
   12dfa:	fd06                	sd	ra,184(sp)
   12dfc:	ed4e                	sd	s3,152(sp)
   12dfe:	e952                	sd	s4,144(sp)
   12e00:	e15a                	sd	s6,128(sp)
   12e02:	fcde                	sd	s7,120(sp)
   12e04:	f8e2                	sd	s8,112(sp)
   12e06:	f4e6                	sd	s9,104(sp)
   12e08:	f0ea                	sd	s10,96(sp)
   12e0a:	84aa                	mv	s1,a0
   12e0c:	842e                	mv	s0,a1
   12e0e:	8932                	mv	s2,a2
   12e10:	8ab6                	mv	s5,a3
   12e12:	eb0ff0ef          	jal	ra,124c2 <eisnan>
   12e16:	c11d                	beqz	a0,12e3c <ediv+0x4c>
   12e18:	85ca                	mv	a1,s2
   12e1a:	8526                	mv	a0,s1
   12e1c:	c78ff0ef          	jal	ra,12294 <emov>
   12e20:	70ea                	ld	ra,184(sp)
   12e22:	744a                	ld	s0,176(sp)
   12e24:	74aa                	ld	s1,168(sp)
   12e26:	790a                	ld	s2,160(sp)
   12e28:	69ea                	ld	s3,152(sp)
   12e2a:	6a4a                	ld	s4,144(sp)
   12e2c:	6aaa                	ld	s5,136(sp)
   12e2e:	6b0a                	ld	s6,128(sp)
   12e30:	7be6                	ld	s7,120(sp)
   12e32:	7c46                	ld	s8,112(sp)
   12e34:	7ca6                	ld	s9,104(sp)
   12e36:	7d06                	ld	s10,96(sp)
   12e38:	6129                	addi	sp,sp,192
   12e3a:	8082                	ret
   12e3c:	8522                	mv	a0,s0
   12e3e:	e84ff0ef          	jal	ra,124c2 <eisnan>
   12e42:	c501                	beqz	a0,12e4a <ediv+0x5a>
   12e44:	85ca                	mv	a1,s2
   12e46:	8522                	mv	a0,s0
   12e48:	bfd1                	j	12e1c <ediv+0x2c>
   12e4a:	69e9                	lui	s3,0x1a
   12e4c:	e7898593          	addi	a1,s3,-392 # 19e78 <ezero>
   12e50:	8526                	mv	a0,s1
   12e52:	f50ff0ef          	jal	ra,125a2 <ecmp>
   12e56:	16050763          	beqz	a0,12fc4 <ediv+0x1d4>
   12e5a:	8526                	mv	a0,s1
   12e5c:	feaff0ef          	jal	ra,12646 <eisinf>
   12e60:	89aa                	mv	s3,a0
   12e62:	8522                	mv	a0,s0
   12e64:	fe2ff0ef          	jal	ra,12646 <eisinf>
   12e68:	16099963          	bnez	s3,12fda <ediv+0x1ea>
   12e6c:	16051c63          	bnez	a0,12fe4 <ediv+0x1f4>
   12e70:	8526                	mv	a0,s1
   12e72:	858a                	mv	a1,sp
   12e74:	e94ff0ef          	jal	ra,12508 <emovi>
   12e78:	8522                	mv	a0,s0
   12e7a:	100c                	addi	a1,sp,32
   12e7c:	e8cff0ef          	jal	ra,12508 <emovi>
   12e80:	02215483          	lhu	s1,34(sp)
   12e84:	00215403          	lhu	s0,2(sp)
   12e88:	ec91                	bnez	s1,12ea4 <ediv+0xb4>
   12e8a:	4781                	li	a5,0
   12e8c:	4759                	li	a4,22
   12e8e:	1014                	addi	a3,sp,32
   12e90:	96be                	add	a3,a3,a5
   12e92:	0026d683          	lhu	a3,2(a3) # ffffffffffffc002 <__global_pointer$+0xfffffffffffded9a>
   12e96:	16068763          	beqz	a3,13004 <ediv+0x214>
   12e9a:	1008                	addi	a0,sp,32
   12e9c:	8cdff0ef          	jal	ra,12768 <enormlz>
   12ea0:	40a004b3          	neg	s1,a0
   12ea4:	00215783          	lhu	a5,2(sp)
   12ea8:	8ba2                	mv	s7,s0
   12eaa:	ef89                	bnez	a5,12ec4 <ediv+0xd4>
   12eac:	4759                	li	a4,22
   12eae:	00f106b3          	add	a3,sp,a5
   12eb2:	0026d683          	lhu	a3,2(a3)
   12eb6:	14068b63          	beqz	a3,1300c <ediv+0x21c>
   12eba:	850a                	mv	a0,sp
   12ebc:	8adff0ef          	jal	ra,12768 <enormlz>
   12ec0:	40a40bb3          	sub	s7,s0,a0
   12ec4:	02015783          	lhu	a5,32(sp)
   12ec8:	02215703          	lhu	a4,34(sp)
   12ecc:	034a8993          	addi	s3,s5,52
   12ed0:	02fa9a23          	sh	a5,52(s5)
   12ed4:	038a8793          	addi	a5,s5,56
   12ed8:	02ea9b23          	sh	a4,54(s5)
   12edc:	8a3e                	mv	s4,a5
   12ede:	04ea8713          	addi	a4,s5,78
   12ee2:	0789                	addi	a5,a5,2
   12ee4:	fe079f23          	sh	zero,-2(a5)
   12ee8:	fee79de3          	bne	a5,a4,12ee2 <ediv+0xf2>
   12eec:	1008                	addi	a0,sp,32
   12eee:	c12ff0ef          	jal	ra,12300 <eshdn1>
   12ef2:	00615c03          	lhu	s8,6(sp)
   12ef6:	6b41                	lui	s6,0x10
   12ef8:	1b7d                	addi	s6,s6,-1
   12efa:	036c0d33          	mul	s10,s8,s6
   12efe:	01a98c93          	addi	s9,s3,26
   12f02:	02415783          	lhu	a5,36(sp)
   12f06:	02615403          	lhu	s0,38(sp)
   12f0a:	07c2                	slli	a5,a5,0x10
   12f0c:	97a2                	add	a5,a5,s0
   12f0e:	845a                	mv	s0,s6
   12f10:	00fd6663          	bltu	s10,a5,12f1c <ediv+0x12c>
   12f14:	0387d433          	divu	s0,a5,s8
   12f18:	1442                	slli	s0,s0,0x30
   12f1a:	9041                	srli	s0,s0,0x30
   12f1c:	858a                	mv	a1,sp
   12f1e:	8522                	mv	a0,s0
   12f20:	0090                	addi	a2,sp,64
   12f22:	d2cff0ef          	jal	ra,1244e <m16m>
   12f26:	100c                	addi	a1,sp,32
   12f28:	0088                	addi	a0,sp,64
   12f2a:	bacff0ef          	jal	ra,122d6 <ecmpm>
   12f2e:	00a05f63          	blez	a0,12f4c <ediv+0x15c>
   12f32:	008c                	addi	a1,sp,64
   12f34:	850a                	mv	a0,sp
   12f36:	cf0ff0ef          	jal	ra,12426 <esubm>
   12f3a:	100c                	addi	a1,sp,32
   12f3c:	0088                	addi	a0,sp,64
   12f3e:	b98ff0ef          	jal	ra,122d6 <ecmpm>
   12f42:	0ea04163          	bgtz	a0,13024 <ediv+0x234>
   12f46:	347d                	addiw	s0,s0,-1
   12f48:	1442                	slli	s0,s0,0x30
   12f4a:	9041                	srli	s0,s0,0x30
   12f4c:	100c                	addi	a1,sp,32
   12f4e:	0088                	addi	a0,sp,64
   12f50:	cd6ff0ef          	jal	ra,12426 <esubm>
   12f54:	1008                	addi	a0,sp,32
   12f56:	008a1023          	sh	s0,0(s4)
   12f5a:	0a09                	addi	s4,s4,2
   12f5c:	c64ff0ef          	jal	ra,123c0 <eshup6>
   12f60:	fb9a11e3          	bne	s4,s9,12f02 <ediv+0x112>
   12f64:	4781                	li	a5,0
   12f66:	4581                	li	a1,0
   12f68:	4759                	li	a4,22
   12f6a:	1014                	addi	a3,sp,32
   12f6c:	96be                	add	a3,a3,a5
   12f6e:	0046d683          	lhu	a3,4(a3)
   12f72:	0789                	addi	a5,a5,2
   12f74:	8dd5                	or	a1,a1,a3
   12f76:	fee79ae3          	bne	a5,a4,12f6a <ediv+0x17a>
   12f7a:	2581                	sext.w	a1,a1
   12f7c:	00b035b3          	snez	a1,a1
   12f80:	101c                	addi	a5,sp,32
   12f82:	0009d703          	lhu	a4,0(s3)
   12f86:	0989                	addi	s3,s3,2
   12f88:	0789                	addi	a5,a5,2
   12f8a:	fee79f23          	sh	a4,-2(a5)
   12f8e:	ff3a1ae3          	bne	s4,s3,12f82 <ediv+0x192>
   12f92:	6691                	lui	a3,0x4
   12f94:	417484b3          	sub	s1,s1,s7
   12f98:	16fd                	addi	a3,a3,-1
   12f9a:	87d6                	mv	a5,s5
   12f9c:	04000713          	li	a4,64
   12fa0:	96a6                	add	a3,a3,s1
   12fa2:	4601                	li	a2,0
   12fa4:	1008                	addi	a0,sp,32
   12fa6:	983ff0ef          	jal	ra,12928 <emdnorm>
   12faa:	00015703          	lhu	a4,0(sp)
   12fae:	02015783          	lhu	a5,32(sp)
   12fb2:	08f71163          	bne	a4,a5,13034 <ediv+0x244>
   12fb6:	02011023          	sh	zero,32(sp)
   12fba:	85ca                	mv	a1,s2
   12fbc:	1008                	addi	a0,sp,32
   12fbe:	85fff0ef          	jal	ra,1281c <emovo.isra.6>
   12fc2:	bdb9                	j	12e20 <ediv+0x30>
   12fc4:	e7898593          	addi	a1,s3,-392
   12fc8:	8522                	mv	a0,s0
   12fca:	dd8ff0ef          	jal	ra,125a2 <ecmp>
   12fce:	e80516e3          	bnez	a0,12e5a <ediv+0x6a>
   12fd2:	854a                	mv	a0,s2
   12fd4:	82bff0ef          	jal	ra,127fe <enan.constprop.12>
   12fd8:	b5a1                	j	12e20 <ediv+0x30>
   12fda:	fd65                	bnez	a0,12fd2 <ediv+0x1e2>
   12fdc:	854a                	mv	a0,s2
   12fde:	aa6ff0ef          	jal	ra,12284 <eclear>
   12fe2:	bd3d                	j	12e20 <ediv+0x30>
   12fe4:	8526                	mv	a0,s1
   12fe6:	d02ff0ef          	jal	ra,124e8 <eisneg>
   12fea:	84aa                	mv	s1,a0
   12fec:	8522                	mv	a0,s0
   12fee:	cfaff0ef          	jal	ra,124e8 <eisneg>
   12ff2:	02a48663          	beq	s1,a0,1301e <ediv+0x22e>
   12ff6:	77e1                	lui	a5,0xffff8
   12ff8:	00f91923          	sh	a5,18(s2)
   12ffc:	854a                	mv	a0,s2
   12ffe:	e6cff0ef          	jal	ra,1266a <einfin.isra.2>
   13002:	bd39                	j	12e20 <ediv+0x30>
   13004:	0789                	addi	a5,a5,2
   13006:	e8e794e3          	bne	a5,a4,12e8e <ediv+0x9e>
   1300a:	bfc9                	j	12fdc <ediv+0x1ec>
   1300c:	0789                	addi	a5,a5,2
   1300e:	eae790e3          	bne	a5,a4,12eae <ediv+0xbe>
   13012:	00015703          	lhu	a4,0(sp)
   13016:	02015783          	lhu	a5,32(sp)
   1301a:	fcf71ee3          	bne	a4,a5,12ff6 <ediv+0x206>
   1301e:	00091923          	sh	zero,18(s2)
   13022:	bfe9                	j	12ffc <ediv+0x20c>
   13024:	3479                	addiw	s0,s0,-2
   13026:	1442                	slli	s0,s0,0x30
   13028:	008c                	addi	a1,sp,64
   1302a:	850a                	mv	a0,sp
   1302c:	9041                	srli	s0,s0,0x30
   1302e:	bf8ff0ef          	jal	ra,12426 <esubm>
   13032:	bf29                	j	12f4c <ediv+0x15c>
   13034:	57fd                	li	a5,-1
   13036:	02f11023          	sh	a5,32(sp)
   1303a:	b741                	j	12fba <ediv+0x1ca>

000000000001303c <_ldtoa_r>:
   1303c:	db010113          	addi	sp,sp,-592
   13040:	ffe6                	sd	s9,504(sp)
   13042:	8cbe                	mv	s9,a5
   13044:	09100793          	li	a5,145
   13048:	e0ae                	sd	a1,64(sp)
   1304a:	1782                	slli	a5,a5,0x20
   1304c:	712c                	ld	a1,96(a0)
   1304e:	17fd                	addi	a5,a5,-1
   13050:	24813023          	sd	s0,576(sp)
   13054:	23413023          	sd	s4,544(sp)
   13058:	21513c23          	sd	s5,536(sp)
   1305c:	21713423          	sd	s7,520(sp)
   13060:	24113423          	sd	ra,584(sp)
   13064:	22913c23          	sd	s1,568(sp)
   13068:	23213823          	sd	s2,560(sp)
   1306c:	23313423          	sd	s3,552(sp)
   13070:	21613823          	sd	s6,528(sp)
   13074:	21813023          	sd	s8,512(sp)
   13078:	fbea                	sd	s10,496(sp)
   1307a:	f7ee                	sd	s11,488(sp)
   1307c:	ec46                	sd	a7,24(sp)
   1307e:	e4b2                	sd	a2,72(sp)
   13080:	eb3e                	sd	a5,400(sp)
   13082:	8a2a                	mv	s4,a0
   13084:	8bb6                	mv	s7,a3
   13086:	8aba                	mv	s5,a4
   13088:	8442                	mv	s0,a6
   1308a:	c999                	beqz	a1,130a0 <_ldtoa_r+0x64>
   1308c:	5538                	lw	a4,104(a0)
   1308e:	4785                	li	a5,1
   13090:	00e797bb          	sllw	a5,a5,a4
   13094:	c598                	sw	a4,8(a1)
   13096:	c5dc                	sw	a5,12(a1)
   13098:	060010ef          	jal	ra,140f8 <_Bfree>
   1309c:	060a3023          	sd	zero,96(s4)
   130a0:	0088                	addi	a0,sp,64
   130a2:	188c                	addi	a1,sp,112
   130a4:	fcaff0ef          	jal	ra,1286e <e113toe.isra.8>
   130a8:	1888                	addi	a0,sp,112
   130aa:	c3eff0ef          	jal	ra,124e8 <eisneg>
   130ae:	14050b63          	beqz	a0,13204 <_ldtoa_r+0x1c8>
   130b2:	4785                	li	a5,1
   130b4:	c01c                	sw	a5,0(s0)
   130b6:	478d                	li	a5,3
   130b8:	14fb8963          	beq	s7,a5,1320a <_ldtoa_r+0x1ce>
   130bc:	4951                	li	s2,20
   130be:	000b8c63          	beqz	s7,130d6 <_ldtoa_r+0x9a>
   130c2:	fffa879b          	addiw	a5,s5,-1
   130c6:	02a00713          	li	a4,42
   130ca:	0007891b          	sext.w	s2,a5
   130ce:	00f75463          	ble	a5,a4,130d6 <_ldtoa_r+0x9a>
   130d2:	02a00913          	li	s2,42
   130d6:	19412783          	lw	a5,404(sp)
   130da:	1888                	addi	a0,sp,112
   130dc:	f03e                	sd	a5,32(sp)
   130de:	be4ff0ef          	jal	ra,124c2 <eisnan>
   130e2:	842a                	mv	s0,a0
   130e4:	12050563          	beqz	a0,1320e <_ldtoa_r+0x1d2>
   130e8:	0001a5b7          	lui	a1,0x1a
   130ec:	0e058593          	addi	a1,a1,224 # 1a0e0 <emtens+0x108>
   130f0:	0a88                	addi	a0,sp,336
   130f2:	6409                	lui	s0,0x2
   130f4:	295010ef          	jal	ra,14b88 <sprintf>
   130f8:	70f40413          	addi	s0,s0,1807 # 270f <_start-0xd9a1>
   130fc:	5782                	lw	a5,32(sp)
   130fe:	1888                	addi	a0,sp,112
   13100:	1a812023          	sw	s0,416(sp)
   13104:	18f12a23          	sw	a5,404(sp)
   13108:	d3eff0ef          	jal	ra,12646 <eisinf>
   1310c:	15010993          	addi	s3,sp,336
   13110:	e511                	bnez	a0,1311c <_ldtoa_r+0xe0>
   13112:	1888                	addi	a0,sp,112
   13114:	baeff0ef          	jal	ra,124c2 <eisnan>
   13118:	78050a63          	beqz	a0,138ac <_ldtoa_r+0x870>
   1311c:	6789                	lui	a5,0x2
   1311e:	70f7879b          	addiw	a5,a5,1807
   13122:	00fca023          	sw	a5,0(s9)
   13126:	87ce                	mv	a5,s3
   13128:	02000613          	li	a2,32
   1312c:	02d00693          	li	a3,45
   13130:	0007c703          	lbu	a4,0(a5) # 2000 <_start-0xe0b0>
   13134:	7cc70063          	beq	a4,a2,138f4 <_ldtoa_r+0x8b8>
   13138:	7ad70e63          	beq	a4,a3,138f4 <_ldtoa_r+0x8b8>
   1313c:	844e                	mv	s0,s3
   1313e:	0785                	addi	a5,a5,1
   13140:	fff7c703          	lbu	a4,-1(a5)
   13144:	00140693          	addi	a3,s0,1
   13148:	fee68fa3          	sb	a4,-1(a3) # 3fff <_start-0xc0b1>
   1314c:	7a071763          	bnez	a4,138fa <_ldtoa_r+0x8be>
   13150:	4709                	li	a4,2
   13152:	4785                	li	a5,1
   13154:	00eb8863          	beq	s7,a4,13164 <_ldtoa_r+0x128>
   13158:	1a012783          	lw	a5,416(sp)
   1315c:	0127d363          	ble	s2,a5,13162 <_ldtoa_r+0x126>
   13160:	87ca                	mv	a5,s2
   13162:	2781                	sext.w	a5,a5
   13164:	03000693          	li	a3,48
   13168:	fff44703          	lbu	a4,-1(s0)
   1316c:	00d71663          	bne	a4,a3,13178 <_ldtoa_r+0x13c>
   13170:	41340733          	sub	a4,s0,s3
   13174:	78e7c663          	blt	a5,a4,13900 <_ldtoa_r+0x8c4>
   13178:	478d                	li	a5,3
   1317a:	7cfb9c63          	bne	s7,a5,13952 <_ldtoa_r+0x916>
   1317e:	1a012783          	lw	a5,416(sp)
   13182:	0127893b          	addw	s2,a5,s2
   13186:	00095763          	bgez	s2,13194 <_ldtoa_r+0x158>
   1318a:	14010823          	sb	zero,336(sp)
   1318e:	000ca023          	sw	zero,0(s9)
   13192:	844e                	mv	s0,s3
   13194:	000ca783          	lw	a5,0(s9)
   13198:	01578abb          	addw	s5,a5,s5
   1319c:	2a8d                	addiw	s5,s5,3
   1319e:	060a2423          	sw	zero,104(s4)
   131a2:	4791                	li	a5,4
   131a4:	01c78713          	addi	a4,a5,28
   131a8:	068a2583          	lw	a1,104(s4)
   131ac:	74eaff63          	bleu	a4,s5,1390a <_ldtoa_r+0x8ce>
   131b0:	8552                	mv	a0,s4
   131b2:	6e3000ef          	jal	ra,14094 <_Balloc>
   131b6:	06aa3023          	sd	a0,96(s4)
   131ba:	85ce                	mv	a1,s3
   131bc:	84aa                	mv	s1,a0
   131be:	3c9010ef          	jal	ra,14d86 <strcpy>
   131c2:	67e2                	ld	a5,24(sp)
   131c4:	c789                	beqz	a5,131ce <_ldtoa_r+0x192>
   131c6:	41340433          	sub	s0,s0,s3
   131ca:	9426                	add	s0,s0,s1
   131cc:	e380                	sd	s0,0(a5)
   131ce:	24813083          	ld	ra,584(sp)
   131d2:	24013403          	ld	s0,576(sp)
   131d6:	8526                	mv	a0,s1
   131d8:	23013903          	ld	s2,560(sp)
   131dc:	23813483          	ld	s1,568(sp)
   131e0:	22813983          	ld	s3,552(sp)
   131e4:	22013a03          	ld	s4,544(sp)
   131e8:	21813a83          	ld	s5,536(sp)
   131ec:	21013b03          	ld	s6,528(sp)
   131f0:	20813b83          	ld	s7,520(sp)
   131f4:	20013c03          	ld	s8,512(sp)
   131f8:	7cfe                	ld	s9,504(sp)
   131fa:	7d5e                	ld	s10,496(sp)
   131fc:	7dbe                	ld	s11,488(sp)
   131fe:	25010113          	addi	sp,sp,592
   13202:	8082                	ret
   13204:	00042023          	sw	zero,0(s0)
   13208:	b57d                	j	130b6 <_ldtoa_r+0x7a>
   1320a:	87d6                	mv	a5,s5
   1320c:	bd6d                	j	130c6 <_ldtoa_r+0x8a>
   1320e:	09000793          	li	a5,144
   13212:	090c                	addi	a1,sp,144
   13214:	1888                	addi	a0,sp,112
   13216:	18f12a23          	sw	a5,404(sp)
   1321a:	87aff0ef          	jal	ra,12294 <emov>
   1321e:	0a215783          	lhu	a5,162(sp)
   13222:	e402                	sd	zero,8(sp)
   13224:	0107971b          	slliw	a4,a5,0x10
   13228:	4107571b          	sraiw	a4,a4,0x10
   1322c:	00075a63          	bgez	a4,13240 <_ldtoa_r+0x204>
   13230:	6721                	lui	a4,0x8
   13232:	177d                	addi	a4,a4,-1
   13234:	8ff9                	and	a5,a5,a4
   13236:	0af11123          	sh	a5,162(sp)
   1323a:	67c1                	lui	a5,0x10
   1323c:	17fd                	addi	a5,a5,-1
   1323e:	e43e                	sd	a5,8(sp)
   13240:	6b69                	lui	s6,0x1a
   13242:	e78b0513          	addi	a0,s6,-392 # 19e78 <ezero>
   13246:	190c                	addi	a1,sp,176
   13248:	0561                	addi	a0,a0,24
   1324a:	84aff0ef          	jal	ra,12294 <emov>
   1324e:	0a215703          	lhu	a4,162(sp)
   13252:	64e9                	lui	s1,0x1a
   13254:	e78b0993          	addi	s3,s6,-392
   13258:	e9048493          	addi	s1,s1,-368 # 19e90 <eone>
   1325c:	6a071e63          	bnez	a4,13918 <_ldtoa_r+0x8dc>
   13260:	091c                	addi	a5,sp,144
   13262:	0a210713          	addi	a4,sp,162
   13266:	0007d683          	lhu	a3,0(a5) # 10000 <_start-0xb0>
   1326a:	e6e1                	bnez	a3,13332 <_ldtoa_r+0x2f6>
   1326c:	0789                	addi	a5,a5,2
   1326e:	fef71ce3          	bne	a4,a5,13266 <_ldtoa_r+0x22a>
   13272:	198c                	addi	a1,sp,240
   13274:	1908                	addi	a0,sp,176
   13276:	a92ff0ef          	jal	ra,12508 <emovi>
   1327a:	190c                	addi	a1,sp,176
   1327c:	1988                	addi	a0,sp,240
   1327e:	83cff0ef          	jal	ra,122ba <emovz>
   13282:	198c                	addi	a1,sp,240
   13284:	0908                	addi	a0,sp,144
   13286:	a82ff0ef          	jal	ra,12508 <emovi>
   1328a:	090c                	addi	a1,sp,144
   1328c:	1988                	addi	a0,sp,240
   1328e:	82cff0ef          	jal	ra,122ba <emovz>
   13292:	0b10                	addi	a2,sp,400
   13294:	090c                	addi	a1,sp,144
   13296:	1908                	addi	a0,sp,176
   13298:	8f7ff0ef          	jal	ra,12b8e <eiremain>
   1329c:	1dc15483          	lhu	s1,476(sp)
   132a0:	e881                	bnez	s1,132b0 <_ldtoa_r+0x274>
   132a2:	e78b0593          	addi	a1,s6,-392
   132a6:	0908                	addi	a0,sp,144
   132a8:	afaff0ef          	jal	ra,125a2 <ecmp>
   132ac:	4c051463          	bnez	a0,13774 <_ldtoa_r+0x738>
   132b0:	67a2                	ld	a5,8(sp)
   132b2:	4e078b63          	beqz	a5,137a8 <_ldtoa_r+0x76c>
   132b6:	02d00793          	li	a5,45
   132ba:	14f10823          	sb	a5,336(sp)
   132be:	478d                	li	a5,3
   132c0:	89ca                	mv	s3,s2
   132c2:	00fb9863          	bne	s7,a5,132d2 <_ldtoa_r+0x296>
   132c6:	008909bb          	addw	s3,s2,s0
   132ca:	02a00793          	li	a5,42
   132ce:	6737c263          	blt	a5,s3,13932 <_ldtoa_r+0x8f6>
   132d2:	47a9                	li	a5,10
   132d4:	4cf49d63          	bne	s1,a5,137ae <_ldtoa_r+0x772>
   132d8:	03100793          	li	a5,49
   132dc:	14f108a3          	sb	a5,337(sp)
   132e0:	02e00793          	li	a5,46
   132e4:	14f10923          	sb	a5,338(sp)
   132e8:	15310c13          	addi	s8,sp,339
   132ec:	01305963          	blez	s3,132fe <_ldtoa_r+0x2c2>
   132f0:	03000793          	li	a5,48
   132f4:	14f109a3          	sb	a5,339(sp)
   132f8:	39fd                	addiw	s3,s3,-1
   132fa:	15410c13          	addi	s8,sp,340
   132fe:	2405                	addiw	s0,s0,1
   13300:	4c09d163          	bgez	s3,137c2 <_ldtoa_r+0x786>
   13304:	0001a5b7          	lui	a1,0x1a
   13308:	8622                	mv	a2,s0
   1330a:	11058593          	addi	a1,a1,272 # 1a110 <emtens+0x138>
   1330e:	8562                	mv	a0,s8
   13310:	079010ef          	jal	ra,14b88 <sprintf>
   13314:	b3e5                	j	130fc <_ldtoa_r+0xc0>
   13316:	0001a5b7          	lui	a1,0x1a
   1331a:	0f858593          	addi	a1,a1,248 # 1a0f8 <emtens+0x120>
   1331e:	bbc9                	j	130f0 <_ldtoa_r+0xb4>
   13320:	0a011783          	lh	a5,160(sp)
   13324:	0007c763          	bltz	a5,13332 <_ldtoa_r+0x2f6>
   13328:	0001a5b7          	lui	a1,0x1a
   1332c:	10858593          	addi	a1,a1,264 # 1a108 <emtens+0x130>
   13330:	b3c1                	j	130f0 <_ldtoa_r+0xb4>
   13332:	090c                	addi	a1,sp,144
   13334:	8526                	mv	a0,s1
   13336:	a6cff0ef          	jal	ra,125a2 <ecmp>
   1333a:	dd05                	beqz	a0,13272 <_ldtoa_r+0x236>
   1333c:	32055063          	bgez	a0,1365c <_ldtoa_r+0x620>
   13340:	098c                	addi	a1,sp,208
   13342:	0908                	addi	a0,sp,144
   13344:	f51fe0ef          	jal	ra,12294 <emov>
   13348:	6791                	lui	a5,0x4
   1334a:	08e7879b          	addiw	a5,a5,142
   1334e:	0ef11123          	sh	a5,226(sp)
   13352:	47c1                	li	a5,16
   13354:	e83e                	sd	a5,16(sp)
   13356:	67a1                	lui	a5,0x8
   13358:	17fd                	addi	a5,a5,-1
   1335a:	f43e                	sd	a5,40(sp)
   1335c:	77f1                	lui	a5,0xffffc
   1335e:	2789                	addiw	a5,a5,2
   13360:	4d01                	li	s10,0
   13362:	da3e                	sw	a5,52(sp)
   13364:	67e9                	lui	a5,0x1a
   13366:	f4878793          	addi	a5,a5,-184 # 19f48 <etens+0xa0>
   1336a:	01a78533          	add	a0,a5,s10
   1336e:	0b14                	addi	a3,sp,400
   13370:	1910                	addi	a2,sp,176
   13372:	098c                	addi	a1,sp,208
   13374:	a7dff0ef          	jal	ra,12df0 <ediv>
   13378:	08ac                	addi	a1,sp,88
   1337a:	1908                	addi	a0,sp,176
   1337c:	f19fe0ef          	jal	ra,12294 <emov>
   13380:	77a2                	ld	a5,40(sp)
   13382:	06a15c03          	lhu	s8,106(sp)
   13386:	00fc76b3          	and	a3,s8,a5
   1338a:	57d2                	lw	a5,52(sp)
   1338c:	9ebd                	addw	a3,a3,a5
   1338e:	02d04f63          	bgtz	a3,133cc <_ldtoa_r+0x390>
   13392:	1988                	addi	a0,sp,240
   13394:	ef1fe0ef          	jal	ra,12284 <eclear>
   13398:	010c1c1b          	slliw	s8,s8,0x10
   1339c:	410c5c1b          	sraiw	s8,s8,0x10
   133a0:	0c0c5063          	bgez	s8,13460 <_ldtoa_r+0x424>
   133a4:	4781                	li	a5,0
   133a6:	08b8                	addi	a4,sp,88
   133a8:	973e                	add	a4,a4,a5
   133aa:	00075683          	lhu	a3,0(a4) # 8000 <_start-0x80b0>
   133ae:	1998                	addi	a4,sp,240
   133b0:	973e                	add	a4,a4,a5
   133b2:	00075703          	lhu	a4,0(a4)
   133b6:	28e68e63          	beq	a3,a4,13652 <_ldtoa_r+0x616>
   133ba:	8526                	mv	a0,s1
   133bc:	906ff0ef          	jal	ra,124c2 <eisnan>
   133c0:	c135                	beqz	a0,13424 <_ldtoa_r+0x3e8>
   133c2:	198c                	addi	a1,sp,240
   133c4:	8526                	mv	a0,s1
   133c6:	ecffe0ef          	jal	ra,12294 <emov>
   133ca:	a859                	j	13460 <_ldtoa_r+0x424>
   133cc:	09000793          	li	a5,144
   133d0:	40d7873b          	subw	a4,a5,a3
   133d4:	198c                	addi	a1,sp,240
   133d6:	08a8                	addi	a0,sp,88
   133d8:	8dba                	mv	s11,a4
   133da:	fc3a                	sd	a4,56(sp)
   133dc:	eb9fe0ef          	jal	ra,12294 <emov>
   133e0:	7762                	ld	a4,56(sp)
   133e2:	06e05f63          	blez	a4,13460 <_ldtoa_r+0x424>
   133e6:	199c                	addi	a5,sp,240
   133e8:	463d                	li	a2,15
   133ea:	02e64863          	blt	a2,a4,1341a <_ldtoa_r+0x3de>
   133ee:	004dd61b          	srliw	a2,s11,0x4
   133f2:	02061713          	slli	a4,a2,0x20
   133f6:	199c                	addi	a5,sp,240
   133f8:	837d                	srli	a4,a4,0x1f
   133fa:	973e                	add	a4,a4,a5
   133fc:	57c1                	li	a5,-16
   133fe:	02c787bb          	mulw	a5,a5,a2
   13402:	00075683          	lhu	a3,0(a4)
   13406:	01b787bb          	addw	a5,a5,s11
   1340a:	0786                	slli	a5,a5,0x1
   1340c:	97ce                	add	a5,a5,s3
   1340e:	1387d783          	lhu	a5,312(a5)
   13412:	8ff5                	and	a5,a5,a3
   13414:	00f71023          	sh	a5,0(a4)
   13418:	b741                	j	13398 <_ldtoa_r+0x35c>
   1341a:	00079023          	sh	zero,0(a5)
   1341e:	3741                	addiw	a4,a4,-16
   13420:	0789                	addi	a5,a5,2
   13422:	b7e1                	j	133ea <_ldtoa_r+0x3ae>
   13424:	1988                	addi	a0,sp,240
   13426:	89cff0ef          	jal	ra,124c2 <eisnan>
   1342a:	c501                	beqz	a0,13432 <_ldtoa_r+0x3f6>
   1342c:	198c                	addi	a1,sp,240
   1342e:	852e                	mv	a0,a1
   13430:	bf59                	j	133c6 <_ldtoa_r+0x38a>
   13432:	8526                	mv	a0,s1
   13434:	a12ff0ef          	jal	ra,12646 <eisinf>
   13438:	8daa                	mv	s11,a0
   1343a:	1988                	addi	a0,sp,240
   1343c:	a0aff0ef          	jal	ra,12646 <eisinf>
   13440:	8c2a                	mv	s8,a0
   13442:	0e0d8963          	beqz	s11,13534 <_ldtoa_r+0x4f8>
   13446:	c961                	beqz	a0,13516 <_ldtoa_r+0x4da>
   13448:	8526                	mv	a0,s1
   1344a:	89eff0ef          	jal	ra,124e8 <eisneg>
   1344e:	8c2a                	mv	s8,a0
   13450:	1988                	addi	a0,sp,240
   13452:	896ff0ef          	jal	ra,124e8 <eisneg>
   13456:	0cac1063          	bne	s8,a0,13516 <_ldtoa_r+0x4da>
   1345a:	1988                	addi	a0,sp,240
   1345c:	ba2ff0ef          	jal	ra,127fe <enan.constprop.12>
   13460:	4781                	li	a5,0
   13462:	1918                	addi	a4,sp,176
   13464:	973e                	add	a4,a4,a5
   13466:	00075683          	lhu	a3,0(a4)
   1346a:	1998                	addi	a4,sp,240
   1346c:	973e                	add	a4,a4,a5
   1346e:	00075703          	lhu	a4,0(a4)
   13472:	00e69c63          	bne	a3,a4,1348a <_ldtoa_r+0x44e>
   13476:	0789                	addi	a5,a5,2
   13478:	4749                	li	a4,18
   1347a:	fee794e3          	bne	a5,a4,13462 <_ldtoa_r+0x426>
   1347e:	098c                	addi	a1,sp,208
   13480:	1908                	addi	a0,sp,176
   13482:	e13fe0ef          	jal	ra,12294 <emov>
   13486:	47c2                	lw	a5,16(sp)
   13488:	9c3d                	addw	s0,s0,a5
   1348a:	67c2                	ld	a5,16(sp)
   1348c:	0d51                	addi	s10,s10,20
   1348e:	8385                	srli	a5,a5,0x1
   13490:	e83e                	sd	a5,16(sp)
   13492:	06400793          	li	a5,100
   13496:	ecfd17e3          	bne	s10,a5,13364 <_ldtoa_r+0x328>
   1349a:	0e215783          	lhu	a5,226(sp)
   1349e:	0a215703          	lhu	a4,162(sp)
   134a2:	090c                	addi	a1,sp,144
   134a4:	0988                	addi	a0,sp,208
   134a6:	9fb9                	addw	a5,a5,a4
   134a8:	7771                	lui	a4,0xffffc
   134aa:	f727071b          	addiw	a4,a4,-142
   134ae:	9fb9                	addw	a5,a5,a4
   134b0:	0ef11123          	sh	a5,226(sp)
   134b4:	de1fe0ef          	jal	ra,12294 <emov>
   134b8:	8526                	mv	a0,s1
   134ba:	190c                	addi	a1,sp,176
   134bc:	dd9fe0ef          	jal	ra,12294 <emov>
   134c0:	4481                	li	s1,0
   134c2:	6d05                	lui	s10,0x1
   134c4:	12098993          	addi	s3,s3,288
   134c8:	10400d93          	li	s11,260
   134cc:	67e9                	lui	a5,0x1a
   134ce:	ea878793          	addi	a5,a5,-344 # 19ea8 <etens>
   134d2:	098c                	addi	a1,sp,208
   134d4:	854e                	mv	a0,s3
   134d6:	00f48c33          	add	s8,s1,a5
   134da:	8c8ff0ef          	jal	ra,125a2 <ecmp>
   134de:	d8a04ae3          	bgtz	a0,13272 <_ldtoa_r+0x236>
   134e2:	098c                	addi	a1,sp,208
   134e4:	8562                	mv	a0,s8
   134e6:	8bcff0ef          	jal	ra,125a2 <ecmp>
   134ea:	02a04063          	bgtz	a0,1350a <_ldtoa_r+0x4ce>
   134ee:	0990                	addi	a2,sp,208
   134f0:	85b2                	mv	a1,a2
   134f2:	0b14                	addi	a3,sp,400
   134f4:	8562                	mv	a0,s8
   134f6:	8fbff0ef          	jal	ra,12df0 <ediv>
   134fa:	1910                	addi	a2,sp,176
   134fc:	0b14                	addi	a3,sp,400
   134fe:	85b2                	mv	a1,a2
   13500:	8562                	mv	a0,s8
   13502:	f20ff0ef          	jal	ra,12c22 <emul>
   13506:	008d043b          	addw	s0,s10,s0
   1350a:	04d1                	addi	s1,s1,20
   1350c:	001d5d13          	srli	s10,s10,0x1
   13510:	fbb49ee3          	bne	s1,s11,134cc <_ldtoa_r+0x490>
   13514:	bbb9                	j	13272 <_ldtoa_r+0x236>
   13516:	8526                	mv	a0,s1
   13518:	198c                	addi	a1,sp,240
   1351a:	d7bfe0ef          	jal	ra,12294 <emov>
   1351e:	1988                	addi	a0,sp,240
   13520:	fa3fe0ef          	jal	ra,124c2 <eisnan>
   13524:	fd15                	bnez	a0,13460 <_ldtoa_r+0x424>
   13526:	10215783          	lhu	a5,258(sp)
   1352a:	7761                	lui	a4,0xffff8
   1352c:	8fb9                	xor	a5,a5,a4
   1352e:	10f11123          	sh	a5,258(sp)
   13532:	b73d                	j	13460 <_ldtoa_r+0x424>
   13534:	ee051ce3          	bnez	a0,1342c <_ldtoa_r+0x3f0>
   13538:	0a0c                	addi	a1,sp,272
   1353a:	8526                	mv	a0,s1
   1353c:	fcdfe0ef          	jal	ra,12508 <emovi>
   13540:	1a0c                	addi	a1,sp,304
   13542:	1988                	addi	a0,sp,240
   13544:	fc5fe0ef          	jal	ra,12508 <emovi>
   13548:	11015703          	lhu	a4,272(sp)
   1354c:	13215d83          	lhu	s11,306(sp)
   13550:	11215783          	lhu	a5,274(sp)
   13554:	fff74713          	not	a4,a4
   13558:	1742                	slli	a4,a4,0x30
   1355a:	9341                	srli	a4,a4,0x30
   1355c:	10e11823          	sh	a4,272(sp)
   13560:	41b787b3          	sub	a5,a5,s11
   13564:	06f05363          	blez	a5,135ca <_ldtoa_r+0x58e>
   13568:	0a8c                	addi	a1,sp,336
   1356a:	1a08                	addi	a0,sp,304
   1356c:	fc3e                	sd	a5,56(sp)
   1356e:	d4dfe0ef          	jal	ra,122ba <emovz>
   13572:	1a0c                	addi	a1,sp,304
   13574:	0a08                	addi	a0,sp,272
   13576:	d45fe0ef          	jal	ra,122ba <emovz>
   1357a:	0a0c                	addi	a1,sp,272
   1357c:	0a88                	addi	a0,sp,336
   1357e:	d3dfe0ef          	jal	ra,122ba <emovz>
   13582:	77e2                	ld	a5,56(sp)
   13584:	13215d83          	lhu	s11,306(sp)
   13588:	40f007b3          	neg	a5,a5
   1358c:	f6f00713          	li	a4,-145
   13590:	06e7c763          	blt	a5,a4,135fe <_ldtoa_r+0x5c2>
   13594:	85be                	mv	a1,a5
   13596:	0a08                	addi	a0,sp,272
   13598:	8f0ff0ef          	jal	ra,12688 <eshift.part.3>
   1359c:	882a                	mv	a6,a0
   1359e:	11015703          	lhu	a4,272(sp)
   135a2:	13015783          	lhu	a5,304(sp)
   135a6:	fc42                	sd	a6,56(sp)
   135a8:	1a0c                	addi	a1,sp,304
   135aa:	0a08                	addi	a0,sp,272
   135ac:	08f71f63          	bne	a4,a5,1364a <_ldtoa_r+0x60e>
   135b0:	e4ffe0ef          	jal	ra,123fe <eaddm>
   135b4:	7862                	ld	a6,56(sp)
   135b6:	0b1c                	addi	a5,sp,400
   135b8:	04000713          	li	a4,64
   135bc:	86ee                	mv	a3,s11
   135be:	8662                	mv	a2,s8
   135c0:	85c2                	mv	a1,a6
   135c2:	1a08                	addi	a0,sp,304
   135c4:	b64ff0ef          	jal	ra,12928 <emdnorm>
   135c8:	a81d                	j	135fe <_ldtoa_r+0x5c2>
   135ca:	f3e9                	bnez	a5,1358c <_ldtoa_r+0x550>
   135cc:	1a0c                	addi	a1,sp,304
   135ce:	0a08                	addi	a0,sp,272
   135d0:	fc3a                	sd	a4,56(sp)
   135d2:	d05fe0ef          	jal	ra,122d6 <ecmpm>
   135d6:	e929                	bnez	a0,13628 <_ldtoa_r+0x5ec>
   135d8:	13015783          	lhu	a5,304(sp)
   135dc:	7762                	ld	a4,56(sp)
   135de:	00e78663          	beq	a5,a4,135ea <_ldtoa_r+0x5ae>
   135e2:	1988                	addi	a0,sp,240
   135e4:	ca1fe0ef          	jal	ra,12284 <eclear>
   135e8:	bda5                	j	13460 <_ldtoa_r+0x424>
   135ea:	000d9f63          	bnez	s11,13608 <_ldtoa_r+0x5cc>
   135ee:	13611703          	lh	a4,310(sp)
   135f2:	4781                	li	a5,0
   135f4:	00074b63          	bltz	a4,1360a <_ldtoa_r+0x5ce>
   135f8:	1a08                	addi	a0,sp,304
   135fa:	d3ffe0ef          	jal	ra,12338 <eshup1>
   135fe:	198c                	addi	a1,sp,240
   13600:	1a08                	addi	a0,sp,304
   13602:	a1aff0ef          	jal	ra,1281c <emovo.isra.6>
   13606:	bda9                	j	13460 <_ldtoa_r+0x424>
   13608:	4781                	li	a5,0
   1360a:	4759                	li	a4,22
   1360c:	1a14                	addi	a3,sp,304
   1360e:	00f68633          	add	a2,a3,a5
   13612:	00265603          	lhu	a2,2(a2)
   13616:	c609                	beqz	a2,13620 <_ldtoa_r+0x5e4>
   13618:	0d85                	addi	s11,s11,1
   1361a:	13b11923          	sh	s11,306(sp)
   1361e:	b7c5                	j	135fe <_ldtoa_r+0x5c2>
   13620:	0789                	addi	a5,a5,2
   13622:	fee795e3          	bne	a5,a4,1360c <_ldtoa_r+0x5d0>
   13626:	bfd5                	j	1361a <_ldtoa_r+0x5de>
   13628:	4801                	li	a6,0
   1362a:	f6a05ae3          	blez	a0,1359e <_ldtoa_r+0x562>
   1362e:	0a8c                	addi	a1,sp,336
   13630:	1a08                	addi	a0,sp,304
   13632:	c89fe0ef          	jal	ra,122ba <emovz>
   13636:	1a0c                	addi	a1,sp,304
   13638:	0a08                	addi	a0,sp,272
   1363a:	c81fe0ef          	jal	ra,122ba <emovz>
   1363e:	0a0c                	addi	a1,sp,272
   13640:	0a88                	addi	a0,sp,336
   13642:	c79fe0ef          	jal	ra,122ba <emovz>
   13646:	8862                	mv	a6,s8
   13648:	bf99                	j	1359e <_ldtoa_r+0x562>
   1364a:	dddfe0ef          	jal	ra,12426 <esubm>
   1364e:	4c05                	li	s8,1
   13650:	b795                	j	135b4 <_ldtoa_r+0x578>
   13652:	0789                	addi	a5,a5,2
   13654:	4749                	li	a4,18
   13656:	d4e798e3          	bne	a5,a4,133a6 <_ldtoa_r+0x36a>
   1365a:	b519                	j	13460 <_ldtoa_r+0x424>
   1365c:	0a215783          	lhu	a5,162(sp)
   13660:	12098c13          	addi	s8,s3,288
   13664:	cfad                	beqz	a5,136de <_ldtoa_r+0x6a2>
   13666:	198c                	addi	a1,sp,240
   13668:	0908                	addi	a0,sp,144
   1366a:	6c11                	lui	s8,0x4
   1366c:	e9dfe0ef          	jal	ra,12508 <emovi>
   13670:	1c79                	addi	s8,s8,-2
   13672:	fd500d13          	li	s10,-43
   13676:	10815783          	lhu	a5,264(sp)
   1367a:	8b9d                	andi	a5,a5,7
   1367c:	e7a9                	bnez	a5,136c6 <_ldtoa_r+0x68a>
   1367e:	098c                	addi	a1,sp,208
   13680:	1988                	addi	a0,sp,240
   13682:	c39fe0ef          	jal	ra,122ba <emovz>
   13686:	0988                	addi	a0,sp,208
   13688:	c79fe0ef          	jal	ra,12300 <eshdn1>
   1368c:	0988                	addi	a0,sp,208
   1368e:	c73fe0ef          	jal	ra,12300 <eshdn1>
   13692:	098c                	addi	a1,sp,208
   13694:	1988                	addi	a0,sp,240
   13696:	d69fe0ef          	jal	ra,123fe <eaddm>
   1369a:	0d215783          	lhu	a5,210(sp)
   1369e:	278d                	addiw	a5,a5,3
   136a0:	0cf11923          	sh	a5,210(sp)
   136a4:	0d415783          	lhu	a5,212(sp)
   136a8:	efdd                	bnez	a5,13766 <_ldtoa_r+0x72a>
   136aa:	0e815783          	lhu	a5,232(sp)
   136ae:	ef81                	bnez	a5,136c6 <_ldtoa_r+0x68a>
   136b0:	0d215783          	lhu	a5,210(sp)
   136b4:	00fc6963          	bltu	s8,a5,136c6 <_ldtoa_r+0x68a>
   136b8:	198c                	addi	a1,sp,240
   136ba:	0988                	addi	a0,sp,208
   136bc:	347d                	addiw	s0,s0,-1
   136be:	bfdfe0ef          	jal	ra,122ba <emovz>
   136c2:	fba41ae3          	bne	s0,s10,13676 <_ldtoa_r+0x63a>
   136c6:	090c                	addi	a1,sp,144
   136c8:	1988                	addi	a0,sp,240
   136ca:	952ff0ef          	jal	ra,1281c <emovo.isra.6>
   136ce:	a821                	j	136e6 <_ldtoa_r+0x6aa>
   136d0:	0910                	addi	a2,sp,144
   136d2:	0b14                	addi	a3,sp,400
   136d4:	85b2                	mv	a1,a2
   136d6:	8562                	mv	a0,s8
   136d8:	d4aff0ef          	jal	ra,12c22 <emul>
   136dc:	347d                	addiw	s0,s0,-1
   136de:	0a011783          	lh	a5,160(sp)
   136e2:	fe07d7e3          	bgez	a5,136d0 <_ldtoa_r+0x694>
   136e6:	198c                	addi	a1,sp,240
   136e8:	0908                	addi	a0,sp,144
   136ea:	babfe0ef          	jal	ra,12294 <emov>
   136ee:	190c                	addi	a1,sp,176
   136f0:	8526                	mv	a0,s1
   136f2:	ba3fe0ef          	jal	ra,12294 <emov>
   136f6:	16098793          	addi	a5,s3,352
   136fa:	4d01                	li	s10,0
   136fc:	7c7d                	lui	s8,0xfffff
   136fe:	e83e                	sd	a5,16(sp)
   13700:	4d89                	li	s11,2
   13702:	67e9                	lui	a5,0x1a
   13704:	ea878793          	addi	a5,a5,-344 # 19ea8 <etens>
   13708:	01a789b3          	add	s3,a5,s10
   1370c:	67c2                	ld	a5,16(sp)
   1370e:	198c                	addi	a1,sp,240
   13710:	8526                	mv	a0,s1
   13712:	01a78733          	add	a4,a5,s10
   13716:	f43a                	sd	a4,40(sp)
   13718:	e8bfe0ef          	jal	ra,125a2 <ecmp>
   1371c:	7722                	ld	a4,40(sp)
   1371e:	02a05d63          	blez	a0,13758 <_ldtoa_r+0x71c>
   13722:	198c                	addi	a1,sp,240
   13724:	853a                	mv	a0,a4
   13726:	e7dfe0ef          	jal	ra,125a2 <ecmp>
   1372a:	02054063          	bltz	a0,1374a <_ldtoa_r+0x70e>
   1372e:	1990                	addi	a2,sp,240
   13730:	85b2                	mv	a1,a2
   13732:	0b14                	addi	a3,sp,400
   13734:	854e                	mv	a0,s3
   13736:	cecff0ef          	jal	ra,12c22 <emul>
   1373a:	1910                	addi	a2,sp,176
   1373c:	0b14                	addi	a3,sp,400
   1373e:	85b2                	mv	a1,a2
   13740:	854e                	mv	a0,s3
   13742:	ce0ff0ef          	jal	ra,12c22 <emul>
   13746:	008c043b          	addw	s0,s8,s0
   1374a:	0d51                	addi	s10,s10,20
   1374c:	10400793          	li	a5,260
   13750:	03bc4c3b          	divw	s8,s8,s11
   13754:	fafd17e3          	bne	s10,a5,13702 <_ldtoa_r+0x6c6>
   13758:	1910                	addi	a2,sp,176
   1375a:	0b14                	addi	a3,sp,400
   1375c:	85a6                	mv	a1,s1
   1375e:	8532                	mv	a0,a2
   13760:	e90ff0ef          	jal	ra,12df0 <ediv>
   13764:	b639                	j	13272 <_ldtoa_r+0x236>
   13766:	0988                	addi	a0,sp,208
   13768:	b99fe0ef          	jal	ra,12300 <eshdn1>
   1376c:	0d215783          	lhu	a5,210(sp)
   13770:	2785                	addiw	a5,a5,1
   13772:	b73d                	j	136a0 <_ldtoa_r+0x664>
   13774:	0908                	addi	a0,sp,144
   13776:	bc3fe0ef          	jal	ra,12338 <eshup1>
   1377a:	098c                	addi	a1,sp,208
   1377c:	0908                	addi	a0,sp,144
   1377e:	b3dfe0ef          	jal	ra,122ba <emovz>
   13782:	0988                	addi	a0,sp,208
   13784:	bb5fe0ef          	jal	ra,12338 <eshup1>
   13788:	0988                	addi	a0,sp,208
   1378a:	baffe0ef          	jal	ra,12338 <eshup1>
   1378e:	090c                	addi	a1,sp,144
   13790:	0988                	addi	a0,sp,208
   13792:	c6dfe0ef          	jal	ra,123fe <eaddm>
   13796:	0b10                	addi	a2,sp,400
   13798:	090c                	addi	a1,sp,144
   1379a:	1908                	addi	a0,sp,176
   1379c:	bf2ff0ef          	jal	ra,12b8e <eiremain>
   137a0:	347d                	addiw	s0,s0,-1
   137a2:	1dc15483          	lhu	s1,476(sp)
   137a6:	bced                	j	132a0 <_ldtoa_r+0x264>
   137a8:	02000793          	li	a5,32
   137ac:	b639                	j	132ba <_ldtoa_r+0x27e>
   137ae:	0304849b          	addiw	s1,s1,48
   137b2:	02e00793          	li	a5,46
   137b6:	149108a3          	sb	s1,337(sp)
   137ba:	14f10923          	sb	a5,338(sp)
   137be:	15310c13          	addi	s8,sp,339
   137c2:	84e2                	mv	s1,s8
   137c4:	418487bb          	subw	a5,s1,s8
   137c8:	04f9d063          	ble	a5,s3,13808 <_ldtoa_r+0x7cc>
   137cc:	1dc15783          	lhu	a5,476(sp)
   137d0:	4711                	li	a4,4
   137d2:	fff48c13          	addi	s8,s1,-1
   137d6:	b2f757e3          	ble	a5,a4,13304 <_ldtoa_r+0x2c8>
   137da:	4715                	li	a4,5
   137dc:	06e78463          	beq	a5,a4,13844 <_ldtoa_r+0x808>
   137e0:	87e2                	mv	a5,s8
   137e2:	02e00613          	li	a2,46
   137e6:	03800593          	li	a1,56
   137ea:	03000693          	li	a3,48
   137ee:	17fd                	addi	a5,a5,-1
   137f0:	0007c703          	lbu	a4,0(a5)
   137f4:	07f77713          	andi	a4,a4,127
   137f8:	0809d163          	bgez	s3,1387a <_ldtoa_r+0x83e>
   137fc:	03100713          	li	a4,49
   13800:	00e78023          	sb	a4,0(a5)
   13804:	2405                	addiw	s0,s0,1
   13806:	bcfd                	j	13304 <_ldtoa_r+0x2c8>
   13808:	0908                	addi	a0,sp,144
   1380a:	b2ffe0ef          	jal	ra,12338 <eshup1>
   1380e:	098c                	addi	a1,sp,208
   13810:	0908                	addi	a0,sp,144
   13812:	aa9fe0ef          	jal	ra,122ba <emovz>
   13816:	0988                	addi	a0,sp,208
   13818:	b21fe0ef          	jal	ra,12338 <eshup1>
   1381c:	0988                	addi	a0,sp,208
   1381e:	b1bfe0ef          	jal	ra,12338 <eshup1>
   13822:	090c                	addi	a1,sp,144
   13824:	0988                	addi	a0,sp,208
   13826:	bd9fe0ef          	jal	ra,123fe <eaddm>
   1382a:	0b10                	addi	a2,sp,400
   1382c:	090c                	addi	a1,sp,144
   1382e:	1908                	addi	a0,sp,176
   13830:	b5eff0ef          	jal	ra,12b8e <eiremain>
   13834:	1dc14783          	lbu	a5,476(sp)
   13838:	0485                	addi	s1,s1,1
   1383a:	0307879b          	addiw	a5,a5,48
   1383e:	fef48fa3          	sb	a5,-1(s1)
   13842:	b749                	j	137c4 <_ldtoa_r+0x788>
   13844:	190c                	addi	a1,sp,176
   13846:	0908                	addi	a0,sp,144
   13848:	fd5fe0ef          	jal	ra,1281c <emovo.isra.6>
   1384c:	e78b0593          	addi	a1,s6,-392
   13850:	1908                	addi	a0,sp,176
   13852:	d51fe0ef          	jal	ra,125a2 <ecmp>
   13856:	f549                	bnez	a0,137e0 <_ldtoa_r+0x7a4>
   13858:	aa09c6e3          	bltz	s3,13304 <_ldtoa_r+0x2c8>
   1385c:	ffe4c783          	lbu	a5,-2(s1)
   13860:	fd278793          	addi	a5,a5,-46
   13864:	0017b793          	seqz	a5,a5
   13868:	fff7c793          	not	a5,a5
   1386c:	97e2                	add	a5,a5,s8
   1386e:	0007c783          	lbu	a5,0(a5)
   13872:	8b85                	andi	a5,a5,1
   13874:	a80788e3          	beqz	a5,13304 <_ldtoa_r+0x2c8>
   13878:	b7a5                	j	137e0 <_ldtoa_r+0x7a4>
   1387a:	02c71063          	bne	a4,a2,1389a <_ldtoa_r+0x85e>
   1387e:	fff7c703          	lbu	a4,-1(a5)
   13882:	03800693          	li	a3,56
   13886:	00e6e663          	bltu	a3,a4,13892 <_ldtoa_r+0x856>
   1388a:	2705                	addiw	a4,a4,1
   1388c:	fee78fa3          	sb	a4,-1(a5)
   13890:	bc95                	j	13304 <_ldtoa_r+0x2c8>
   13892:	2405                	addiw	s0,s0,1
   13894:	03100713          	li	a4,49
   13898:	bfd5                	j	1388c <_ldtoa_r+0x850>
   1389a:	00e5e663          	bltu	a1,a4,138a6 <_ldtoa_r+0x86a>
   1389e:	2705                	addiw	a4,a4,1
   138a0:	00e78023          	sb	a4,0(a5)
   138a4:	b485                	j	13304 <_ldtoa_r+0x2c8>
   138a6:	00d78023          	sb	a3,0(a5)
   138aa:	b791                	j	137ee <_ldtoa_r+0x7b2>
   138ac:	2405                	addiw	s0,s0,1
   138ae:	008ca023          	sw	s0,0(s9)
   138b2:	87ce                	mv	a5,s3
   138b4:	02e00693          	li	a3,46
   138b8:	0007c703          	lbu	a4,0(a5)
   138bc:	ef09                	bnez	a4,138d6 <_ldtoa_r+0x89a>
   138be:	04500713          	li	a4,69
   138c2:	0007c683          	lbu	a3,0(a5)
   138c6:	00e68463          	beq	a3,a4,138ce <_ldtoa_r+0x892>
   138ca:	02f9e363          	bltu	s3,a5,138f0 <_ldtoa_r+0x8b4>
   138ce:	00078023          	sb	zero,0(a5)
   138d2:	855ff06f          	j	13126 <_ldtoa_r+0xea>
   138d6:	00d70963          	beq	a4,a3,138e8 <_ldtoa_r+0x8ac>
   138da:	0785                	addi	a5,a5,1
   138dc:	bff1                	j	138b8 <_ldtoa_r+0x87c>
   138de:	0017c703          	lbu	a4,1(a5)
   138e2:	0785                	addi	a5,a5,1
   138e4:	fee78fa3          	sb	a4,-1(a5)
   138e8:	0007c703          	lbu	a4,0(a5)
   138ec:	fb6d                	bnez	a4,138de <_ldtoa_r+0x8a2>
   138ee:	bfc1                	j	138be <_ldtoa_r+0x882>
   138f0:	17fd                	addi	a5,a5,-1
   138f2:	bfc1                	j	138c2 <_ldtoa_r+0x886>
   138f4:	0785                	addi	a5,a5,1
   138f6:	83bff06f          	j	13130 <_ldtoa_r+0xf4>
   138fa:	8436                	mv	s0,a3
   138fc:	843ff06f          	j	1313e <_ldtoa_r+0x102>
   13900:	147d                	addi	s0,s0,-1
   13902:	00040023          	sb	zero,0(s0)
   13906:	863ff06f          	j	13168 <_ldtoa_r+0x12c>
   1390a:	2585                	addiw	a1,a1,1
   1390c:	06ba2423          	sw	a1,104(s4)
   13910:	0017979b          	slliw	a5,a5,0x1
   13914:	891ff06f          	j	131a4 <_ldtoa_r+0x168>
   13918:	67a1                	lui	a5,0x8
   1391a:	17fd                	addi	a5,a5,-1
   1391c:	a0f712e3          	bne	a4,a5,13320 <_ldtoa_r+0x2e4>
   13920:	67a2                	ld	a5,8(sp)
   13922:	9e078ae3          	beqz	a5,13316 <_ldtoa_r+0x2da>
   13926:	0001a5b7          	lui	a1,0x1a
   1392a:	0e858593          	addi	a1,a1,232 # 1a0e8 <emtens+0x110>
   1392e:	fc2ff06f          	j	130f0 <_ldtoa_r+0xb4>
   13932:	47a9                	li	a5,10
   13934:	02a00993          	li	s3,42
   13938:	e6f49be3          	bne	s1,a5,137ae <_ldtoa_r+0x772>
   1393c:	03100793          	li	a5,49
   13940:	14f108a3          	sb	a5,337(sp)
   13944:	02e00793          	li	a5,46
   13948:	14f10923          	sb	a5,338(sp)
   1394c:	02a00993          	li	s3,42
   13950:	b245                	j	132f0 <_ldtoa_r+0x2b4>
   13952:	2aa5                	addiw	s5,s5,9
   13954:	84bff06f          	j	1319e <_ldtoa_r+0x162>

0000000000013958 <_ldcheck>:
   13958:	611c                	ld	a5,0(a0)
   1395a:	7139                	addi	sp,sp,-64
   1395c:	080c                	addi	a1,sp,16
   1395e:	e03e                	sd	a5,0(sp)
   13960:	651c                	ld	a5,8(a0)
   13962:	850a                	mv	a0,sp
   13964:	fc06                	sd	ra,56(sp)
   13966:	e43e                	sd	a5,8(sp)
   13968:	f07fe0ef          	jal	ra,1286e <e113toe.isra.8>
   1396c:	02215783          	lhu	a5,34(sp)
   13970:	4501                	li	a0,0
   13972:	fff7c793          	not	a5,a5
   13976:	03179713          	slli	a4,a5,0x31
   1397a:	e719                	bnez	a4,13988 <_ldcheck+0x30>
   1397c:	0808                	addi	a0,sp,16
   1397e:	b45fe0ef          	jal	ra,124c2 <eisnan>
   13982:	00153513          	seqz	a0,a0
   13986:	0505                	addi	a0,a0,1
   13988:	70e2                	ld	ra,56(sp)
   1398a:	6121                	addi	sp,sp,64
   1398c:	8082                	ret

000000000001398e <__localeconv_l>:
   1398e:	10050513          	addi	a0,a0,256
   13992:	8082                	ret

0000000000013994 <_localeconv_r>:
   13994:	8301b783          	ld	a5,-2000(gp) # 1ca98 <_impure_ptr>
   13998:	67a8                	ld	a0,72(a5)
   1399a:	e501                	bnez	a0,139a2 <_localeconv_r+0xe>
   1399c:	6571                	lui	a0,0x1c
   1399e:	0b050513          	addi	a0,a0,176 # 1c0b0 <__global_locale>
   139a2:	10050513          	addi	a0,a0,256
   139a6:	8082                	ret

00000000000139a8 <localeconv>:
   139a8:	8301b783          	ld	a5,-2000(gp) # 1ca98 <_impure_ptr>
   139ac:	67a8                	ld	a0,72(a5)
   139ae:	e501                	bnez	a0,139b6 <localeconv+0xe>
   139b0:	6571                	lui	a0,0x1c
   139b2:	0b050513          	addi	a0,a0,176 # 1c0b0 <__global_locale>
   139b6:	10050513          	addi	a0,a0,256
   139ba:	8082                	ret

00000000000139bc <_setlocale_r>:
   139bc:	1101                	addi	sp,sp,-32
   139be:	e426                	sd	s1,8(sp)
   139c0:	ec06                	sd	ra,24(sp)
   139c2:	e822                	sd	s0,16(sp)
   139c4:	0001a4b7          	lui	s1,0x1a
   139c8:	ca0d                	beqz	a2,139fa <_setlocale_r+0x3e>
   139ca:	0001a5b7          	lui	a1,0x1a
   139ce:	12058593          	addi	a1,a1,288 # 1a120 <emtens+0x148>
   139d2:	8532                	mv	a0,a2
   139d4:	8432                	mv	s0,a2
   139d6:	2c6010ef          	jal	ra,14c9c <strcmp>
   139da:	c105                	beqz	a0,139fa <_setlocale_r+0x3e>
   139dc:	11848593          	addi	a1,s1,280 # 1a118 <emtens+0x140>
   139e0:	8522                	mv	a0,s0
   139e2:	2ba010ef          	jal	ra,14c9c <strcmp>
   139e6:	c911                	beqz	a0,139fa <_setlocale_r+0x3e>
   139e8:	0001a5b7          	lui	a1,0x1a
   139ec:	e6858593          	addi	a1,a1,-408 # 19e68 <zeroes.4413+0x88>
   139f0:	8522                	mv	a0,s0
   139f2:	2aa010ef          	jal	ra,14c9c <strcmp>
   139f6:	4781                	li	a5,0
   139f8:	e119                	bnez	a0,139fe <_setlocale_r+0x42>
   139fa:	11848793          	addi	a5,s1,280
   139fe:	60e2                	ld	ra,24(sp)
   13a00:	6442                	ld	s0,16(sp)
   13a02:	64a2                	ld	s1,8(sp)
   13a04:	853e                	mv	a0,a5
   13a06:	6105                	addi	sp,sp,32
   13a08:	8082                	ret

0000000000013a0a <__locale_mb_cur_max>:
   13a0a:	8301b783          	ld	a5,-2000(gp) # 1ca98 <_impure_ptr>
   13a0e:	67bc                	ld	a5,72(a5)
   13a10:	e781                	bnez	a5,13a18 <__locale_mb_cur_max+0xe>
   13a12:	67f1                	lui	a5,0x1c
   13a14:	0b078793          	addi	a5,a5,176 # 1c0b0 <__global_locale>
   13a18:	1607c503          	lbu	a0,352(a5)
   13a1c:	8082                	ret

0000000000013a1e <__locale_ctype_ptr_l>:
   13a1e:	7d68                	ld	a0,248(a0)
   13a20:	8082                	ret

0000000000013a22 <__locale_ctype_ptr>:
   13a22:	8301b783          	ld	a5,-2000(gp) # 1ca98 <_impure_ptr>
   13a26:	67bc                	ld	a5,72(a5)
   13a28:	e781                	bnez	a5,13a30 <__locale_ctype_ptr+0xe>
   13a2a:	67f1                	lui	a5,0x1c
   13a2c:	0b078793          	addi	a5,a5,176 # 1c0b0 <__global_locale>
   13a30:	7fe8                	ld	a0,248(a5)
   13a32:	8082                	ret

0000000000013a34 <setlocale>:
   13a34:	862e                	mv	a2,a1
   13a36:	85aa                	mv	a1,a0
   13a38:	8301b503          	ld	a0,-2000(gp) # 1ca98 <_impure_ptr>
   13a3c:	f81ff06f          	j	139bc <_setlocale_r>

0000000000013a40 <__swhatbuf_r>:
   13a40:	7135                	addi	sp,sp,-160
   13a42:	e526                	sd	s1,136(sp)
   13a44:	84ae                	mv	s1,a1
   13a46:	01259583          	lh	a1,18(a1)
   13a4a:	e922                	sd	s0,144(sp)
   13a4c:	ed06                	sd	ra,152(sp)
   13a4e:	8432                	mv	s0,a2
   13a50:	0005dc63          	bgez	a1,13a68 <__swhatbuf_r+0x28>
   13a54:	0104d783          	lhu	a5,16(s1)
   13a58:	0006a023          	sw	zero,0(a3)
   13a5c:	0807f793          	andi	a5,a5,128
   13a60:	eb95                	bnez	a5,13a94 <__swhatbuf_r+0x54>
   13a62:	40000793          	li	a5,1024
   13a66:	a80d                	j	13a98 <__swhatbuf_r+0x58>
   13a68:	0830                	addi	a2,sp,24
   13a6a:	e436                	sd	a3,8(sp)
   13a6c:	52c030ef          	jal	ra,16f98 <_fstat_r>
   13a70:	66a2                	ld	a3,8(sp)
   13a72:	fe0541e3          	bltz	a0,13a54 <__swhatbuf_r+0x14>
   13a76:	47f2                	lw	a5,28(sp)
   13a78:	673d                	lui	a4,0xf
   13a7a:	6505                	lui	a0,0x1
   13a7c:	8ff9                	and	a5,a5,a4
   13a7e:	6709                	lui	a4,0x2
   13a80:	8f99                	sub	a5,a5,a4
   13a82:	0017b793          	seqz	a5,a5
   13a86:	c29c                	sw	a5,0(a3)
   13a88:	40000793          	li	a5,1024
   13a8c:	e01c                	sd	a5,0(s0)
   13a8e:	80050513          	addi	a0,a0,-2048 # 800 <_start-0xf8b0>
   13a92:	a029                	j	13a9c <__swhatbuf_r+0x5c>
   13a94:	04000793          	li	a5,64
   13a98:	e01c                	sd	a5,0(s0)
   13a9a:	4501                	li	a0,0
   13a9c:	60ea                	ld	ra,152(sp)
   13a9e:	644a                	ld	s0,144(sp)
   13aa0:	64aa                	ld	s1,136(sp)
   13aa2:	610d                	addi	sp,sp,160
   13aa4:	8082                	ret

0000000000013aa6 <__smakebuf_r>:
   13aa6:	0105d783          	lhu	a5,16(a1)
   13aaa:	7179                	addi	sp,sp,-48
   13aac:	f022                	sd	s0,32(sp)
   13aae:	f406                	sd	ra,40(sp)
   13ab0:	ec26                	sd	s1,24(sp)
   13ab2:	e84a                	sd	s2,16(sp)
   13ab4:	8b89                	andi	a5,a5,2
   13ab6:	842e                	mv	s0,a1
   13ab8:	cf89                	beqz	a5,13ad2 <__smakebuf_r+0x2c>
   13aba:	07740793          	addi	a5,s0,119
   13abe:	e01c                	sd	a5,0(s0)
   13ac0:	ec1c                	sd	a5,24(s0)
   13ac2:	4785                	li	a5,1
   13ac4:	d01c                	sw	a5,32(s0)
   13ac6:	70a2                	ld	ra,40(sp)
   13ac8:	7402                	ld	s0,32(sp)
   13aca:	64e2                	ld	s1,24(sp)
   13acc:	6942                	ld	s2,16(sp)
   13ace:	6145                	addi	sp,sp,48
   13ad0:	8082                	ret
   13ad2:	0054                	addi	a3,sp,4
   13ad4:	0030                	addi	a2,sp,8
   13ad6:	84aa                	mv	s1,a0
   13ad8:	f69ff0ef          	jal	ra,13a40 <__swhatbuf_r>
   13adc:	65a2                	ld	a1,8(sp)
   13ade:	892a                	mv	s2,a0
   13ae0:	8526                	mv	a0,s1
   13ae2:	066000ef          	jal	ra,13b48 <_malloc_r>
   13ae6:	ed01                	bnez	a0,13afe <__smakebuf_r+0x58>
   13ae8:	01041783          	lh	a5,16(s0)
   13aec:	2007f713          	andi	a4,a5,512
   13af0:	fb79                	bnez	a4,13ac6 <__smakebuf_r+0x20>
   13af2:	9bf1                	andi	a5,a5,-4
   13af4:	0027e793          	ori	a5,a5,2
   13af8:	00f41823          	sh	a5,16(s0)
   13afc:	bf7d                	j	13aba <__smakebuf_r+0x14>
   13afe:	000127b7          	lui	a5,0x12
   13b02:	d6a78793          	addi	a5,a5,-662 # 11d6a <_cleanup_r>
   13b06:	ecbc                	sd	a5,88(s1)
   13b08:	01045783          	lhu	a5,16(s0)
   13b0c:	e008                	sd	a0,0(s0)
   13b0e:	ec08                	sd	a0,24(s0)
   13b10:	0807e793          	ori	a5,a5,128
   13b14:	00f41823          	sh	a5,16(s0)
   13b18:	67a2                	ld	a5,8(sp)
   13b1a:	d01c                	sw	a5,32(s0)
   13b1c:	4792                	lw	a5,4(sp)
   13b1e:	cf91                	beqz	a5,13b3a <__smakebuf_r+0x94>
   13b20:	01241583          	lh	a1,18(s0)
   13b24:	8526                	mv	a0,s1
   13b26:	78a030ef          	jal	ra,172b0 <_isatty_r>
   13b2a:	c901                	beqz	a0,13b3a <__smakebuf_r+0x94>
   13b2c:	01045783          	lhu	a5,16(s0)
   13b30:	9bf1                	andi	a5,a5,-4
   13b32:	0017e793          	ori	a5,a5,1
   13b36:	00f41823          	sh	a5,16(s0)
   13b3a:	01045783          	lhu	a5,16(s0)
   13b3e:	00f96933          	or	s2,s2,a5
   13b42:	01241823          	sh	s2,16(s0)
   13b46:	b741                	j	13ac6 <__smakebuf_r+0x20>

0000000000013b48 <_malloc_r>:
   13b48:	715d                	addi	sp,sp,-80
   13b4a:	fc26                	sd	s1,56(sp)
   13b4c:	f84a                	sd	s2,48(sp)
   13b4e:	e486                	sd	ra,72(sp)
   13b50:	e0a2                	sd	s0,64(sp)
   13b52:	f44e                	sd	s3,40(sp)
